(dp0
VServer
p1
Vcmsweb.cern.ch
p2
sVPort
p3
V
p4
sVRequestName
p5
V250316_093449:fnenna_crab_140X_MCRun4_DsTau3Mu_private_RECO
p6
sVvoRole
p7
VNULL
p8
sVvoGroup
p9
g4
sVinstance
p10
Vprod
p11
sVOriginalConfig
p12
ccopy_reg
_reconstructor
p13
(cWMCore.Configuration
Configuration
p14
c__builtin__
object
p15
Ntp16
Rp17
(dp18
V_internal_sections
p19
(lp20
VGeneral
p21
aVJobType
p22
aVData
p23
aVSite
p24
aVUser
p25
aVDebug
p26
asg21
g13
(cWMCore.Configuration
ConfigSection
p27
g15
Ntp28
Rp29
(dp30
V_internal_documentation
p31
g4
sV_internal_name
p32
g21
sV_internal_settings
p33
c__builtin__
set
p34
((lp35
VrequestName
p36
aVtransferLogs
p37
aVworkArea
p38
aVtransferOutputs
p39
atp40
Rp41
sV_internal_docstrings
p42
(dp43
sV_internal_children
p44
g34
((lp45
tp46
Rp47
sV_internal_parent_ref
p48
NsV_internal_skipChecks
p49
I00
sg36
V140X_MCRun4_DsTau3Mu_private_RECO
p50
sg38
Vcrab_projects
p51
sg39
I01
sg37
I00
sbsg22
g13
(g27
g15
Ntp52
Rp53
(dp54
g31
g4
sg32
g22
sg33
g34
((lp55
VpsetName
p56
aVmaxMemoryMB
p57
aVallowUndistributedCMSSW
p58
aVnumCores
p59
aVpluginName
p60
atp61
Rp62
sg42
(dp63
sg44
g34
((lp64
tp65
Rp66
sg48
Nsg49
I00
sg60
VAnalysis
p67
sg56
V/lustrehome/felicenenna/tau3mu/CMSSW_14_0_17/src/GenAnalyser/GenAnalyzer/python/genAnalyser_RECO_cff.py
p68
sg59
I1
sg57
I5000
sg58
I01
sbsg23
g13
(g27
g15
Ntp69
Rp70
(dp71
g31
g4
sg32
g23
sg33
g34
((lp72
VoutputDatasetTag
p73
aVpublication
p74
aVunitsPerJob
p75
aVoutputPrimaryDataset
p76
aVsplitting
p77
aVuserInputFiles
p78
atp79
Rp80
sg42
(dp81
sg44
g34
((lp82
tp83
Rp84
sg48
Nsg49
I00
sg78
(lp85
V/store/user/fnenna/DsTau3Mu_privateFnenna_Phase2/140X_mcRun4_DsTau3Mu_RECO_RECOSIM_PAT_VALIDATION_DQM/250129_211502/0000/step3_DsTau3Mu_RECO_1.root
p86
aV/store/user/fnenna/DsTau3Mu_privateFnenna_Phase2/140X_mcRun4_DsTau3Mu_RECO_RECOSIM_PAT_VALIDATION_DQM/250129_211502/0000/step3_DsTau3Mu_RECO_2.root
p87
aV/store/user/fnenna/DsTau3Mu_privateFnenna_Phase2/140X_mcRun4_DsTau3Mu_RECO_RECOSIM_PAT_VALIDATION_DQM/250129_211502/0000/step3_DsTau3Mu_RECO_3.root
p88
aV/store/user/fnenna/DsTau3Mu_privateFnenna_Phase2/140X_mcRun4_DsTau3Mu_RECO_RECOSIM_PAT_VALIDATION_DQM/250129_211502/0000/step3_DsTau3Mu_RECO_4.root
p89
aV/store/user/fnenna/DsTau3Mu_privateFnenna_Phase2/140X_mcRun4_DsTau3Mu_RECO_RECOSIM_PAT_VALIDATION_DQM/250129_211502/0000/step3_DsTau3Mu_RECO_5.root
p90
aV/store/user/fnenna/DsTau3Mu_privateFnenna_Phase2/140X_mcRun4_DsTau3Mu_RECO_RECOSIM_PAT_VALIDATION_DQM/250129_211502/0000/step3_DsTau3Mu_RECO_6.root
p91
aV/store/user/fnenna/DsTau3Mu_privateFnenna_Phase2/140X_mcRun4_DsTau3Mu_RECO_RECOSIM_PAT_VALIDATION_DQM/250129_211502/0000/step3_DsTau3Mu_RECO_7.root
p92
aV/store/user/fnenna/DsTau3Mu_privateFnenna_Phase2/140X_mcRun4_DsTau3Mu_RECO_RECOSIM_PAT_VALIDATION_DQM/250129_211502/0000/step3_DsTau3Mu_RECO_8.root
p93
aV/store/user/fnenna/DsTau3Mu_privateFnenna_Phase2/140X_mcRun4_DsTau3Mu_RECO_RECOSIM_PAT_VALIDATION_DQM/250129_211502/0000/step3_DsTau3Mu_RECO_9.root
p94
aV/store/user/fnenna/DsTau3Mu_privateFnenna_Phase2/140X_mcRun4_DsTau3Mu_RECO_RECOSIM_PAT_VALIDATION_DQM/250129_211502/0000/step3_DsTau3Mu_RECO_10.root
p95
asg77
VFileBased
p96
sg75
I1
sg74
I00
sg76
VDsTau3Mu_privateFnenna_Phase2
p97
sg73
g50
sbsg24
g13
(g27
g15
Ntp98
Rp99
(dp100
g31
g4
sg32
g24
sg33
g34
((lp101
VignoreGlobalBlacklist
p102
aVstorageSite
p103
atp104
Rp105
sg42
(dp106
sg44
g34
((lp107
tp108
Rp109
sg48
Nsg49
I00
sg103
VT2_IT_Bari
p110
sg102
I01
sbsg25
g13
(g27
g15
Ntp111
Rp112
(dp113
g31
g4
sg32
g25
sg33
g34
((lp114
tp115
Rp116
sg42
(dp117
sg44
g34
((lp118
tp119
Rp120
sg48
Nsg49
I00
sbsg26
g13
(g27
g15
Ntp121
Rp122
(dp123
g31
g4
sg32
g26
sg33
g34
((lp124
tp125
Rp126
sg42
(dp127
sg44
g34
((lp128
tp129
Rp130
sg48
Nsg49
I00
sbsbs.