(dp0
VServer
p1
Vcmsweb.cern.ch
p2
sVPort
p3
V
p4
sVRequestName
p5
V250316_181228:fnenna_crab_140X_mcPhase2_DsTau3Mu_RECO_ANAv3_onlyGEMneg_PU200
p6
sVvoRole
p7
VNULL
p8
sVvoGroup
p9
g4
sVinstance
p10
Vprod
p11
sVOriginalConfig
p12
ccopy_reg
_reconstructor
p13
(cWMCore.Configuration
Configuration
p14
c__builtin__
object
p15
Ntp16
Rp17
(dp18
V_internal_sections
p19
(lp20
VGeneral
p21
aVJobType
p22
aVData
p23
aVSite
p24
aVUser
p25
aVDebug
p26
asg21
g13
(cWMCore.Configuration
ConfigSection
p27
g15
Ntp28
Rp29
(dp30
V_internal_documentation
p31
g4
sV_internal_name
p32
g21
sV_internal_settings
p33
c__builtin__
set
p34
((lp35
VtransferLogs
p36
aVrequestName
p37
aVtransferOutputs
p38
aVworkArea
p39
atp40
Rp41
sV_internal_docstrings
p42
(dp43
sV_internal_children
p44
g34
((lp45
tp46
Rp47
sV_internal_parent_ref
p48
NsV_internal_skipChecks
p49
I00
sg37
V140X_mcPhase2_DsTau3Mu_RECO_ANAv3_onlyGEMneg_PU200
p50
sg39
Vcrab_projects
p51
sg38
I01
sg36
I00
sbsg22
g13
(g27
g15
Ntp52
Rp53
(dp54
g31
g4
sg32
g22
sg33
g34
((lp55
VpsetName
p56
aVallowUndistributedCMSSW
p57
aVpluginName
p58
aVnumCores
p59
aVmaxMemoryMB
p60
atp61
Rp62
sg42
(dp63
sg44
g34
((lp64
tp65
Rp66
sg48
Nsg49
I00
sg58
VAnalysis
p67
sg56
V/lustrehome/felicenenna/tau3mu/CMSSW_14_0_17/src/GenAnalyser/GenAnalyzer/python/genAnalyser_RECO_cff.py
p68
sg59
I1
sg60
I5000
sg57
I01
sbsg23
g13
(g27
g15
Ntp69
Rp70
(dp71
g31
g4
sg32
g23
sg33
g34
((lp72
VinputDataset
p73
aVunitsPerJob
p74
aVsplitting
p75
aVpublication
p76
aVinputDBS
p77
aVoutputDatasetTag
p78
atp79
Rp80
sg42
(dp81
sg44
g34
((lp82
tp83
Rp84
sg48
Nsg49
I00
sg73
V/DsTau3Mu_pythia8_Phase2_14TeV_PU200/fnenna-140X_mcPhase2_DsTau3Mu_PU200_onlyGEMneg_RECO_v3-d24c5882cf93662fdafa5eb703fd711d/USER
p85
sg77
Vphys03
p86
sg75
VFileBased
p87
sg74
I10
sg76
I00
sg78
g50
sbsg24
g13
(g27
g15
Ntp88
Rp89
(dp90
g31
g4
sg32
g24
sg33
g34
((lp91
VignoreGlobalBlacklist
p92
aVstorageSite
p93
atp94
Rp95
sg42
(dp96
sg44
g34
((lp97
tp98
Rp99
sg48
Nsg49
I00
sg93
VT2_IT_Bari
p100
sg92
I01
sbsg25
g13
(g27
g15
Ntp101
Rp102
(dp103
g31
g4
sg32
g25
sg33
g34
((lp104
tp105
Rp106
sg42
(dp107
sg44
g34
((lp108
tp109
Rp110
sg48
Nsg49
I00
sbsg26
g13
(g27
g15
Ntp111
Rp112
(dp113
g31
g4
sg32
g26
sg33
g34
((lp114
tp115
Rp116
sg42
(dp117
sg44
g34
((lp118
tp119
Rp120
sg48
Nsg49
I00
sbsbs.