(dp0
VServer
p1
Vcmsweb.cern.ch
p2
sVPort
p3
V
p4
sVRequestName
p5
V250604_123658:fnenna_crab_140X_mcPhase2_NuGunPU200_MiniaodAna_PU1
p6
sVvoRole
p7
VNULL
p8
sVvoGroup
p9
g4
sVinstance
p10
Vprod
p11
sVOriginalConfig
p12
ccopy_reg
_reconstructor
p13
(cWMCore.Configuration
Configuration
p14
c__builtin__
object
p15
Ntp16
Rp17
(dp18
V_internal_sections
p19
(lp20
VGeneral
p21
aVJobType
p22
aVData
p23
aVSite
p24
aVUser
p25
aVDebug
p26
asg21
g13
(cWMCore.Configuration
ConfigSection
p27
g15
Ntp28
Rp29
(dp30
V_internal_documentation
p31
g4
sV_internal_name
p32
g21
sV_internal_settings
p33
c__builtin__
set
p34
((lp35
VrequestName
p36
aVtransferOutputs
p37
aVtransferLogs
p38
aVworkArea
p39
atp40
Rp41
sV_internal_docstrings
p42
(dp43
sV_internal_children
p44
g34
((lp45
tp46
Rp47
sV_internal_parent_ref
p48
NsV_internal_skipChecks
p49
I00
sg36
V140X_mcPhase2_NuGunPU200_MiniaodAna_PU1
p50
sg39
Vcrab_projects
p51
sg37
I01
sg38
I01
sbsg22
g13
(g27
g15
Ntp52
Rp53
(dp54
g31
g4
sg32
g22
sg33
g34
((lp55
VpsetName
p56
aVallowUndistributedCMSSW
p57
aVpluginName
p58
atp59
Rp60
sg42
(dp61
sg44
g34
((lp62
tp63
Rp64
sg48
Nsg49
I00
sg58
VAnalysis
p65
sg56
V/lustrehome/felicenenna/tau3mu/CMSSW_14_0_17/src/GenAnalyser/GenAnalyzer/python/genAnalyser_cff.py
p66
sg57
I01
sbsg23
g13
(g27
g15
Ntp67
Rp68
(dp69
g31
g4
sg32
g23
sg33
g34
((lp70
Vpublication
p71
aVinputDataset
p72
aVoutputDatasetTag
p73
aVunitsPerJob
p74
aVsplitting
p75
aVinputDBS
p76
atp77
Rp78
sg42
(dp79
sg44
g34
((lp80
tp81
Rp82
sg48
Nsg49
I00
sg72
V/NuGunE10_Phase2_PUstudies/fnenna-140X_mcPhase2_14TeV_NuGun_MINIAOD_PU1-ece9576153624786c5b578bc33ac1c32/USER
p83
sg76
Vphys03
p84
sg75
VFileBased
p85
sg74
I5
sg71
I01
sg73
g50
sbsg24
g13
(g27
g15
Ntp86
Rp87
(dp88
g31
g4
sg32
g24
sg33
g34
((lp89
VignoreGlobalBlacklist
p90
aVstorageSite
p91
atp92
Rp93
sg42
(dp94
sg44
g34
((lp95
tp96
Rp97
sg48
Nsg49
I00
sg91
VT2_IT_Bari
p98
sg90
I01
sbsg25
g13
(g27
g15
Ntp99
Rp100
(dp101
g31
g4
sg32
g25
sg33
g34
((lp102
tp103
Rp104
sg42
(dp105
sg44
g34
((lp106
tp107
Rp108
sg48
Nsg49
I00
sbsg26
g13
(g27
g15
Ntp109
Rp110
(dp111
g31
g4
sg32
g26
sg33
g34
((lp112
tp113
Rp114
sg42
(dp115
sg44
g34
((lp116
tp117
Rp118
sg48
Nsg49
I00
sbsbs.