(dp0
VServer
p1
Vcmsweb.cern.ch
p2
sVPort
p3
V
p4
sVRequestName
p5
V250326_143828:fnenna_crab_140X_mcRun4_TenMuE_0_20_GEN_ANA
p6
sVvoRole
p7
VNULL
p8
sVvoGroup
p9
g4
sVinstance
p10
Vprod
p11
sVOriginalConfig
p12
ccopy_reg
_reconstructor
p13
(cWMCore.Configuration
Configuration
p14
c__builtin__
object
p15
Ntp16
Rp17
(dp18
V_internal_sections
p19
(lp20
VGeneral
p21
aVJobType
p22
aVData
p23
aVSite
p24
aVUser
p25
aVDebug
p26
asg21
g13
(cWMCore.Configuration
ConfigSection
p27
g15
Ntp28
Rp29
(dp30
V_internal_documentation
p31
g4
sV_internal_name
p32
g21
sV_internal_settings
p33
c__builtin__
set
p34
((lp35
VtransferOutputs
p36
aVworkArea
p37
aVtransferLogs
p38
aVrequestName
p39
atp40
Rp41
sV_internal_docstrings
p42
(dp43
sV_internal_children
p44
g34
((lp45
tp46
Rp47
sV_internal_parent_ref
p48
NsV_internal_skipChecks
p49
I00
sg39
V140X_mcRun4_TenMuE_0_20_GEN_ANA
p50
sg37
Vcrab_projects
p51
sg36
I01
sg38
I01
sbsg22
g13
(g27
g15
Ntp52
Rp53
(dp54
g31
g4
sg32
g22
sg33
g34
((lp55
VpluginName
p56
aVnumCores
p57
aVmaxMemoryMB
p58
aVallowUndistributedCMSSW
p59
aVpsetName
p60
atp61
Rp62
sg42
(dp63
sg44
g34
((lp64
tp65
Rp66
sg48
Nsg49
I00
sg56
VAnalysis
p67
sg60
V/lustrehome/felicenenna/tau3mu/CMSSW_14_0_17/src/GenAnalyser/GenAnalyzer/python/genAnalyser_cff.py
p68
sg57
I1
sg58
I5000
sg59
I01
sbsg23
g13
(g27
g15
Ntp69
Rp70
(dp71
g31
g4
sg32
g23
sg33
g34
((lp72
Vsplitting
p73
aVuserInputFiles
p74
aVpublication
p75
aVunitsPerJob
p76
aVoutputPrimaryDataset
p77
aVoutputDatasetTag
p78
atp79
Rp80
sg42
(dp81
sg44
g34
((lp82
tp83
Rp84
sg48
Nsg49
I00
sg74
(lp85
V/store/user/fnenna/TenMuE_0_20_Phase2/140X_mcRun4_TenMuE_0_20_GEN-SIM/250126_155601/0000/TenMuE_0_20_GEN_SIM_0.root
p86
aV/store/user/fnenna/TenMuE_0_20_Phase2/140X_mcRun4_TenMuE_0_20_GEN-SIM/250126_155601/0000/TenMuE_0_20_GEN_SIM_1.root
p87
aV/store/user/fnenna/TenMuE_0_20_Phase2/140X_mcRun4_TenMuE_0_20_GEN-SIM/250126_155601/0000/TenMuE_0_20_GEN_SIM_2.root
p88
aV/store/user/fnenna/TenMuE_0_20_Phase2/140X_mcRun4_TenMuE_0_20_GEN-SIM/250126_155601/0000/TenMuE_0_20_GEN_SIM_3.root
p89
aV/store/user/fnenna/TenMuE_0_20_Phase2/140X_mcRun4_TenMuE_0_20_GEN-SIM/250126_155601/0000/TenMuE_0_20_GEN_SIM_4.root
p90
aV/store/user/fnenna/TenMuE_0_20_Phase2/140X_mcRun4_TenMuE_0_20_GEN-SIM/250126_155601/0000/TenMuE_0_20_GEN_SIM_5.root
p91
aV/store/user/fnenna/TenMuE_0_20_Phase2/140X_mcRun4_TenMuE_0_20_GEN-SIM/250126_155601/0000/TenMuE_0_20_GEN_SIM_6.root
p92
aV/store/user/fnenna/TenMuE_0_20_Phase2/140X_mcRun4_TenMuE_0_20_GEN-SIM/250126_155601/0000/TenMuE_0_20_GEN_SIM_7.root
p93
aV/store/user/fnenna/TenMuE_0_20_Phase2/140X_mcRun4_TenMuE_0_20_GEN-SIM/250126_155601/0000/TenMuE_0_20_GEN_SIM_8.root
p94
aV/store/user/fnenna/TenMuE_0_20_Phase2/140X_mcRun4_TenMuE_0_20_GEN-SIM/250126_155601/0000/TenMuE_0_20_GEN_SIM_9.root
p95
asg73
VFileBased
p96
sg76
I1
sg75
I00
sg77
VTenMuE_0_20_Phase2
p97
sg78
g50
sbsg24
g13
(g27
g15
Ntp98
Rp99
(dp100
g31
g4
sg32
g24
sg33
g34
((lp101
VstorageSite
p102
aVignoreGlobalBlacklist
p103
atp104
Rp105
sg42
(dp106
sg44
g34
((lp107
tp108
Rp109
sg48
Nsg49
I00
sg102
VT2_IT_Bari
p110
sg103
I01
sbsg25
g13
(g27
g15
Ntp111
Rp112
(dp113
g31
g4
sg32
g25
sg33
g34
((lp114
tp115
Rp116
sg42
(dp117
sg44
g34
((lp118
tp119
Rp120
sg48
Nsg49
I00
sbsg26
g13
(g27
g15
Ntp121
Rp122
(dp123
g31
g4
sg32
g26
sg33
g34
((lp124
tp125
Rp126
sg42
(dp127
sg44
g34
((lp128
tp129
Rp130
sg48
Nsg49
I00
sbsbs.