(dp0
VServer
p1
Vcmsweb.cern.ch
p2
sVPort
p3
V
p4
sVRequestName
p5
V250526_154417:fnenna_crab_140X_mcPhase2_NuGunPU200_MiniaodAna_gemsegm_v3Prel
p6
sVvoRole
p7
VNULL
p8
sVvoGroup
p9
g4
sVinstance
p10
Vprod
p11
sVOriginalConfig
p12
ccopy_reg
_reconstructor
p13
(cWMCore.Configuration
Configuration
p14
c__builtin__
object
p15
Ntp16
Rp17
(dp18
V_internal_sections
p19
(lp20
VGeneral
p21
aVJobType
p22
aVData
p23
aVSite
p24
aVUser
p25
aVDebug
p26
asg21
g13
(cWMCore.Configuration
ConfigSection
p27
g15
Ntp28
Rp29
(dp30
V_internal_documentation
p31
g4
sV_internal_name
p32
g21
sV_internal_settings
p33
c__builtin__
set
p34
((lp35
VworkArea
p36
aVtransferLogs
p37
aVtransferOutputs
p38
aVrequestName
p39
atp40
Rp41
sV_internal_docstrings
p42
(dp43
sV_internal_children
p44
g34
((lp45
tp46
Rp47
sV_internal_parent_ref
p48
NsV_internal_skipChecks
p49
I00
sg39
V140X_mcPhase2_NuGunPU200_MiniaodAna_gemsegm_v3Prel
p50
sg36
Vcrab_projects
p51
sg38
I01
sg37
I01
sbsg22
g13
(g27
g15
Ntp52
Rp53
(dp54
g31
g4
sg32
g22
sg33
g34
((lp55
VallowUndistributedCMSSW
p56
aVpluginName
p57
aVpsetName
p58
atp59
Rp60
sg42
(dp61
sg44
g34
((lp62
tp63
Rp64
sg48
Nsg49
I00
sg57
VAnalysis
p65
sg58
V/lustrehome/felicenenna/tau3mu/CMSSW_14_0_17/src/GenAnalyser/GenAnalyzer/python/genAnalyser_cff.py
p66
sg56
I01
sbsg23
g13
(g27
g15
Ntp67
Rp68
(dp69
g31
g4
sg32
g23
sg33
g34
((lp70
VoutputPrimaryDataset
p71
aVuserInputFiles
p72
aVinputDBS
p73
aVunitsPerJob
p74
aVpublication
p75
aVsplitting
p76
aVoutputDatasetTag
p77
atp78
Rp79
sg42
(dp80
sg44
g34
((lp81
tp82
Rp83
sg48
Nsg49
I00
sg71
VNuGunE10_Phase2_PUstudies_gemsegm
p84
sg72
(lp85
V/store/user/fnenna/NuGunE10_Phase2_PUstudies/140X_mcPhase2_14TeV_NuGun_MINIAOD_gemsegm/250524_110223/0000/step3_NuGunE10_inMINIAODSIM_882.root\u000a
p86
aV/store/user/fnenna/NuGunE10_Phase2_PUstudies/140X_mcPhase2_14TeV_NuGun_MINIAOD_gemsegm/250524_110223/0000/step3_NuGunE10_inMINIAODSIM_233.root\u000a
p87
aV/store/user/fnenna/NuGunE10_Phase2_PUstudies/140X_mcPhase2_14TeV_NuGun_MINIAOD_gemsegm/250524_110223/0000/step3_NuGunE10_inMINIAODSIM_40.root\u000a
p88
aV/store/user/fnenna/NuGunE10_Phase2_PUstudies/140X_mcPhase2_14TeV_NuGun_MINIAOD_gemsegm/250524_110223/0000/step3_NuGunE10_inMINIAODSIM_310.root\u000a
p89
aV/store/user/fnenna/NuGunE10_Phase2_PUstudies/140X_mcPhase2_14TeV_NuGun_MINIAOD_gemsegm/250524_110223/0000/step3_NuGunE10_inMINIAODSIM_323.root\u000a
p90
aV/store/user/fnenna/NuGunE10_Phase2_PUstudies/140X_mcPhase2_14TeV_NuGun_MINIAOD_gemsegm/250524_110223/0000/step3_NuGunE10_inMINIAODSIM_314.root\u000a
p91
aV/store/user/fnenna/NuGunE10_Phase2_PUstudies/140X_mcPhase2_14TeV_NuGun_MINIAOD_gemsegm/250524_110223/0000/step3_NuGunE10_inMINIAODSIM_587.root\u000a
p92
aV/store/user/fnenna/NuGunE10_Phase2_PUstudies/140X_mcPhase2_14TeV_NuGun_MINIAOD_gemsegm/250524_110223/0000/step3_NuGunE10_inMINIAODSIM_447.root\u000a
p93
aV/store/user/fnenna/NuGunE10_Phase2_PUstudies/140X_mcPhase2_14TeV_NuGun_MINIAOD_gemsegm/250524_110223/0000/step3_NuGunE10_inMINIAODSIM_163.root\u000a
p94
aV/store/user/fnenna/NuGunE10_Phase2_PUstudies/140X_mcPhase2_14TeV_NuGun_MINIAOD_gemsegm/250524_110223/0000/step3_NuGunE10_inMINIAODSIM_813.root\u000a
p95
aV/store/user/fnenna/NuGunE10_Phase2_PUstudies/140X_mcPhase2_14TeV_NuGun_MINIAOD_gemsegm/250524_110223/0000/step3_NuGunE10_inMINIAODSIM_167.root\u000a
p96
aV/store/user/fnenna/NuGunE10_Phase2_PUstudies/140X_mcPhase2_14TeV_NuGun_MINIAOD_gemsegm/250524_110223/0000/step3_NuGunE10_inMINIAODSIM_907.root\u000a
p97
aV/store/user/fnenna/NuGunE10_Phase2_PUstudies/140X_mcPhase2_14TeV_NuGun_MINIAOD_gemsegm/250524_110223/0000/step3_NuGunE10_inMINIAODSIM_144.root\u000a
p98
aV/store/user/fnenna/NuGunE10_Phase2_PUstudies/140X_mcPhase2_14TeV_NuGun_MINIAOD_gemsegm/250524_110223/0000/step3_NuGunE10_inMINIAODSIM_372.root\u000a
p99
aV/store/user/fnenna/NuGunE10_Phase2_PUstudies/140X_mcPhase2_14TeV_NuGun_MINIAOD_gemsegm/250524_110223/0000/step3_NuGunE10_inMINIAODSIM_950.root\u000a
p100
aV/store/user/fnenna/NuGunE10_Phase2_PUstudies/140X_mcPhase2_14TeV_NuGun_MINIAOD_gemsegm/250524_110223/0000/step3_NuGunE10_inMINIAODSIM_909.root\u000a
p101
aV/store/user/fnenna/NuGunE10_Phase2_PUstudies/140X_mcPhase2_14TeV_NuGun_MINIAOD_gemsegm/250524_110223/0000/step3_NuGunE10_inMINIAODSIM_481.root\u000a
p102
aV/store/user/fnenna/NuGunE10_Phase2_PUstudies/140X_mcPhase2_14TeV_NuGun_MINIAOD_gemsegm/250524_110223/0000/step3_NuGunE10_inMINIAODSIM_536.root\u000a
p103
aV/store/user/fnenna/NuGunE10_Phase2_PUstudies/140X_mcPhase2_14TeV_NuGun_MINIAOD_gemsegm/250524_110223/0000/step3_NuGunE10_inMINIAODSIM_977.root\u000a
p104
aV/store/user/fnenna/NuGunE10_Phase2_PUstudies/140X_mcPhase2_14TeV_NuGun_MINIAOD_gemsegm/250524_110223/0000/step3_NuGunE10_inMINIAODSIM_246.root\u000a
p105
aV/store/user/fnenna/NuGunE10_Phase2_PUstudies/140X_mcPhase2_14TeV_NuGun_MINIAOD_gemsegm/250524_110223/0000/step3_NuGunE10_inMINIAODSIM_705.root\u000a
p106
aV/store/user/fnenna/NuGunE10_Phase2_PUstudies/140X_mcPhase2_14TeV_NuGun_MINIAOD_gemsegm/250524_110223/0000/step3_NuGunE10_inMINIAODSIM_829.root\u000a
p107
aV/store/user/fnenna/NuGunE10_Phase2_PUstudies/140X_mcPhase2_14TeV_NuGun_MINIAOD_gemsegm/250524_110223/0000/step3_NuGunE10_inMINIAODSIM_101.root\u000a
p108
aV/store/user/fnenna/NuGunE10_Phase2_PUstudies/140X_mcPhase2_14TeV_NuGun_MINIAOD_gemsegm/250524_110223/0000/step3_NuGunE10_inMINIAODSIM_295.root\u000a
p109
aV/store/user/fnenna/NuGunE10_Phase2_PUstudies/140X_mcPhase2_14TeV_NuGun_MINIAOD_gemsegm/250524_110223/0000/step3_NuGunE10_inMINIAODSIM_223.root\u000a
p110
aV/store/user/fnenna/NuGunE10_Phase2_PUstudies/140X_mcPhase2_14TeV_NuGun_MINIAOD_gemsegm/250524_110223/0000/step3_NuGunE10_inMINIAODSIM_709.root\u000a
p111
aV/store/user/fnenna/NuGunE10_Phase2_PUstudies/140X_mcPhase2_14TeV_NuGun_MINIAOD_gemsegm/250524_110223/0000/step3_NuGunE10_inMINIAODSIM_55.root\u000a
p112
aV/store/user/fnenna/NuGunE10_Phase2_PUstudies/140X_mcPhase2_14TeV_NuGun_MINIAOD_gemsegm/250524_110223/0000/step3_NuGunE10_inMINIAODSIM_960.root\u000a
p113
aV/store/user/fnenna/NuGunE10_Phase2_PUstudies/140X_mcPhase2_14TeV_NuGun_MINIAOD_gemsegm/250524_110223/0000/step3_NuGunE10_inMINIAODSIM_556.root\u000a
p114
aV/store/user/fnenna/NuGunE10_Phase2_PUstudies/140X_mcPhase2_14TeV_NuGun_MINIAOD_gemsegm/250524_110223/0000/step3_NuGunE10_inMINIAODSIM_777.root\u000a
p115
aV/store/user/fnenna/NuGunE10_Phase2_PUstudies/140X_mcPhase2_14TeV_NuGun_MINIAOD_gemsegm/250524_110223/0000/step3_NuGunE10_inMINIAODSIM_488.root\u000a
p116
aV/store/user/fnenna/NuGunE10_Phase2_PUstudies/140X_mcPhase2_14TeV_NuGun_MINIAOD_gemsegm/250524_110223/0000/step3_NuGunE10_inMINIAODSIM_216.root\u000a
p117
aV/store/user/fnenna/NuGunE10_Phase2_PUstudies/140X_mcPhase2_14TeV_NuGun_MINIAOD_gemsegm/250524_110223/0000/step3_NuGunE10_inMINIAODSIM_107.root\u000a
p118
aV/store/user/fnenna/NuGunE10_Phase2_PUstudies/140X_mcPhase2_14TeV_NuGun_MINIAOD_gemsegm/250524_110223/0000/step3_NuGunE10_inMINIAODSIM_187.root\u000a
p119
aV/store/user/fnenna/NuGunE10_Phase2_PUstudies/140X_mcPhase2_14TeV_NuGun_MINIAOD_gemsegm/250524_110223/0000/step3_NuGunE10_inMINIAODSIM_12.root\u000a
p120
aV/store/user/fnenna/NuGunE10_Phase2_PUstudies/140X_mcPhase2_14TeV_NuGun_MINIAOD_gemsegm/250524_110223/0000/step3_NuGunE10_inMINIAODSIM_498.root\u000a
p121
aV/store/user/fnenna/NuGunE10_Phase2_PUstudies/140X_mcPhase2_14TeV_NuGun_MINIAOD_gemsegm/250524_110223/0000/step3_NuGunE10_inMINIAODSIM_941.root\u000a
p122
aV/store/user/fnenna/NuGunE10_Phase2_PUstudies/140X_mcPhase2_14TeV_NuGun_MINIAOD_gemsegm/250524_110223/0000/step3_NuGunE10_inMINIAODSIM_819.root\u000a
p123
aV/store/user/fnenna/NuGunE10_Phase2_PUstudies/140X_mcPhase2_14TeV_NuGun_MINIAOD_gemsegm/250524_110223/0000/step3_NuGunE10_inMINIAODSIM_426.root\u000a
p124
aV/store/user/fnenna/NuGunE10_Phase2_PUstudies/140X_mcPhase2_14TeV_NuGun_MINIAOD_gemsegm/250524_110223/0000/step3_NuGunE10_inMINIAODSIM_898.root\u000a
p125
aV/store/user/fnenna/NuGunE10_Phase2_PUstudies/140X_mcPhase2_14TeV_NuGun_MINIAOD_gemsegm/250524_110223/0000/step3_NuGunE10_inMINIAODSIM_411.root\u000a
p126
aV/store/user/fnenna/NuGunE10_Phase2_PUstudies/140X_mcPhase2_14TeV_NuGun_MINIAOD_gemsegm/250524_110223/0000/step3_NuGunE10_inMINIAODSIM_826.root\u000a
p127
aV/store/user/fnenna/NuGunE10_Phase2_PUstudies/140X_mcPhase2_14TeV_NuGun_MINIAOD_gemsegm/250524_110223/0000/step3_NuGunE10_inMINIAODSIM_132.root\u000a
p128
aV/store/user/fnenna/NuGunE10_Phase2_PUstudies/140X_mcPhase2_14TeV_NuGun_MINIAOD_gemsegm/250524_110223/0000/step3_NuGunE10_inMINIAODSIM_711.root\u000a
p129
aV/store/user/fnenna/NuGunE10_Phase2_PUstudies/140X_mcPhase2_14TeV_NuGun_MINIAOD_gemsegm/250524_110223/0000/step3_NuGunE10_inMINIAODSIM_692.root\u000a
p130
aV/store/user/fnenna/NuGunE10_Phase2_PUstudies/140X_mcPhase2_14TeV_NuGun_MINIAOD_gemsegm/250524_110223/0000/step3_NuGunE10_inMINIAODSIM_208.root\u000a
p131
aV/store/user/fnenna/NuGunE10_Phase2_PUstudies/140X_mcPhase2_14TeV_NuGun_MINIAOD_gemsegm/250524_110223/0000/step3_NuGunE10_inMINIAODSIM_151.root\u000a
p132
aV/store/user/fnenna/NuGunE10_Phase2_PUstudies/140X_mcPhase2_14TeV_NuGun_MINIAOD_gemsegm/250524_110223/0000/step3_NuGunE10_inMINIAODSIM_983.root\u000a
p133
aV/store/user/fnenna/NuGunE10_Phase2_PUstudies/140X_mcPhase2_14TeV_NuGun_MINIAOD_gemsegm/250524_110223/0000/step3_NuGunE10_inMINIAODSIM_131.root\u000a
p134
aV/store/user/fnenna/NuGunE10_Phase2_PUstudies/140X_mcPhase2_14TeV_NuGun_MINIAOD_gemsegm/250524_110223/0000/step3_NuGunE10_inMINIAODSIM_572.root\u000a
p135
aV/store/user/fnenna/NuGunE10_Phase2_PUstudies/140X_mcPhase2_14TeV_NuGun_MINIAOD_gemsegm/250524_110223/0000/step3_NuGunE10_inMINIAODSIM_830.root\u000a
p136
aV/store/user/fnenna/NuGunE10_Phase2_PUstudies/140X_mcPhase2_14TeV_NuGun_MINIAOD_gemsegm/250524_110223/0000/step3_NuGunE10_inMINIAODSIM_799.root\u000a
p137
aV/store/user/fnenna/NuGunE10_Phase2_PUstudies/140X_mcPhase2_14TeV_NuGun_MINIAOD_gemsegm/250524_110223/0000/step3_NuGunE10_inMINIAODSIM_798.root\u000a
p138
aV/store/user/fnenna/NuGunE10_Phase2_PUstudies/140X_mcPhase2_14TeV_NuGun_MINIAOD_gemsegm/250524_110223/0000/step3_NuGunE10_inMINIAODSIM_235.root\u000a
p139
aV/store/user/fnenna/NuGunE10_Phase2_PUstudies/140X_mcPhase2_14TeV_NuGun_MINIAOD_gemsegm/250524_110223/0000/step3_NuGunE10_inMINIAODSIM_193.root\u000a
p140
aV/store/user/fnenna/NuGunE10_Phase2_PUstudies/140X_mcPhase2_14TeV_NuGun_MINIAOD_gemsegm/250524_110223/0000/step3_NuGunE10_inMINIAODSIM_674.root\u000a
p141
aV/store/user/fnenna/NuGunE10_Phase2_PUstudies/140X_mcPhase2_14TeV_NuGun_MINIAOD_gemsegm/250524_110223/0000/step3_NuGunE10_inMINIAODSIM_643.root\u000a
p142
aV/store/user/fnenna/NuGunE10_Phase2_PUstudies/140X_mcPhase2_14TeV_NuGun_MINIAOD_gemsegm/250524_110223/0000/step3_NuGunE10_inMINIAODSIM_942.root\u000a
p143
aV/store/user/fnenna/NuGunE10_Phase2_PUstudies/140X_mcPhase2_14TeV_NuGun_MINIAOD_gemsegm/250524_110223/0000/step3_NuGunE10_inMINIAODSIM_197.root\u000a
p144
aV/store/user/fnenna/NuGunE10_Phase2_PUstudies/140X_mcPhase2_14TeV_NuGun_MINIAOD_gemsegm/250524_110223/0000/step3_NuGunE10_inMINIAODSIM_511.root\u000a
p145
aV/store/user/fnenna/NuGunE10_Phase2_PUstudies/140X_mcPhase2_14TeV_NuGun_MINIAOD_gemsegm/250524_110223/0000/step3_NuGunE10_inMINIAODSIM_988.root\u000a
p146
aV/store/user/fnenna/NuGunE10_Phase2_PUstudies/140X_mcPhase2_14TeV_NuGun_MINIAOD_gemsegm/250524_110223/0000/step3_NuGunE10_inMINIAODSIM_125.root\u000a
p147
aV/store/user/fnenna/NuGunE10_Phase2_PUstudies/140X_mcPhase2_14TeV_NuGun_MINIAOD_gemsegm/250524_110223/0000/step3_NuGunE10_inMINIAODSIM_472.root\u000a
p148
aV/store/user/fnenna/NuGunE10_Phase2_PUstudies/140X_mcPhase2_14TeV_NuGun_MINIAOD_gemsegm/250524_110223/0000/step3_NuGunE10_inMINIAODSIM_105.root\u000a
p149
aV/store/user/fnenna/NuGunE10_Phase2_PUstudies/140X_mcPhase2_14TeV_NuGun_MINIAOD_gemsegm/250524_110223/0000/step3_NuGunE10_inMINIAODSIM_267.root\u000a
p150
aV/store/user/fnenna/NuGunE10_Phase2_PUstudies/140X_mcPhase2_14TeV_NuGun_MINIAOD_gemsegm/250524_110223/0000/step3_NuGunE10_inMINIAODSIM_350.root\u000a
p151
aV/store/user/fnenna/NuGunE10_Phase2_PUstudies/140X_mcPhase2_14TeV_NuGun_MINIAOD_gemsegm/250524_110223/0000/step3_NuGunE10_inMINIAODSIM_405.root\u000a
p152
aV/store/user/fnenna/NuGunE10_Phase2_PUstudies/140X_mcPhase2_14TeV_NuGun_MINIAOD_gemsegm/250524_110223/0000/step3_NuGunE10_inMINIAODSIM_394.root\u000a
p153
aV/store/user/fnenna/NuGunE10_Phase2_PUstudies/140X_mcPhase2_14TeV_NuGun_MINIAOD_gemsegm/250524_110223/0000/step3_NuGunE10_inMINIAODSIM_713.root\u000a
p154
aV/store/user/fnenna/NuGunE10_Phase2_PUstudies/140X_mcPhase2_14TeV_NuGun_MINIAOD_gemsegm/250524_110223/0000/step3_NuGunE10_inMINIAODSIM_515.root\u000a
p155
aV/store/user/fnenna/NuGunE10_Phase2_PUstudies/140X_mcPhase2_14TeV_NuGun_MINIAOD_gemsegm/250524_110223/0000/step3_NuGunE10_inMINIAODSIM_861.root\u000a
p156
aV/store/user/fnenna/NuGunE10_Phase2_PUstudies/140X_mcPhase2_14TeV_NuGun_MINIAOD_gemsegm/250524_110223/0000/step3_NuGunE10_inMINIAODSIM_374.root\u000a
p157
aV/store/user/fnenna/NuGunE10_Phase2_PUstudies/140X_mcPhase2_14TeV_NuGun_MINIAOD_gemsegm/250524_110223/0000/step3_NuGunE10_inMINIAODSIM_551.root\u000a
p158
aV/store/user/fnenna/NuGunE10_Phase2_PUstudies/140X_mcPhase2_14TeV_NuGun_MINIAOD_gemsegm/250524_110223/0000/step3_NuGunE10_inMINIAODSIM_428.root\u000a
p159
aV/store/user/fnenna/NuGunE10_Phase2_PUstudies/140X_mcPhase2_14TeV_NuGun_MINIAOD_gemsegm/250524_110223/0000/step3_NuGunE10_inMINIAODSIM_23.root\u000a
p160
aV/store/user/fnenna/NuGunE10_Phase2_PUstudies/140X_mcPhase2_14TeV_NuGun_MINIAOD_gemsegm/250524_110223/0000/step3_NuGunE10_inMINIAODSIM_200.root\u000a
p161
aV/store/user/fnenna/NuGunE10_Phase2_PUstudies/140X_mcPhase2_14TeV_NuGun_MINIAOD_gemsegm/250524_110223/0000/step3_NuGunE10_inMINIAODSIM_929.root\u000a
p162
aV/store/user/fnenna/NuGunE10_Phase2_PUstudies/140X_mcPhase2_14TeV_NuGun_MINIAOD_gemsegm/250524_110223/0000/step3_NuGunE10_inMINIAODSIM_553.root\u000a
p163
aV/store/user/fnenna/NuGunE10_Phase2_PUstudies/140X_mcPhase2_14TeV_NuGun_MINIAOD_gemsegm/250524_110223/0000/step3_NuGunE10_inMINIAODSIM_451.root\u000a
p164
aV/store/user/fnenna/NuGunE10_Phase2_PUstudies/140X_mcPhase2_14TeV_NuGun_MINIAOD_gemsegm/250524_110223/0000/step3_NuGunE10_inMINIAODSIM_207.root\u000a
p165
aV/store/user/fnenna/NuGunE10_Phase2_PUstudies/140X_mcPhase2_14TeV_NuGun_MINIAOD_gemsegm/250524_110223/0000/step3_NuGunE10_inMINIAODSIM_380.root\u000a
p166
aV/store/user/fnenna/NuGunE10_Phase2_PUstudies/140X_mcPhase2_14TeV_NuGun_MINIAOD_gemsegm/250524_110223/0000/step3_NuGunE10_inMINIAODSIM_514.root\u000a
p167
aV/store/user/fnenna/NuGunE10_Phase2_PUstudies/140X_mcPhase2_14TeV_NuGun_MINIAOD_gemsegm/250524_110223/0000/step3_NuGunE10_inMINIAODSIM_891.root\u000a
p168
aV/store/user/fnenna/NuGunE10_Phase2_PUstudies/140X_mcPhase2_14TeV_NuGun_MINIAOD_gemsegm/250524_110223/0000/step3_NuGunE10_inMINIAODSIM_270.root\u000a
p169
aV/store/user/fnenna/NuGunE10_Phase2_PUstudies/140X_mcPhase2_14TeV_NuGun_MINIAOD_gemsegm/250524_110223/0000/step3_NuGunE10_inMINIAODSIM_479.root\u000a
p170
aV/store/user/fnenna/NuGunE10_Phase2_PUstudies/140X_mcPhase2_14TeV_NuGun_MINIAOD_gemsegm/250524_110223/0000/step3_NuGunE10_inMINIAODSIM_486.root\u000a
p171
aV/store/user/fnenna/NuGunE10_Phase2_PUstudies/140X_mcPhase2_14TeV_NuGun_MINIAOD_gemsegm/250524_110223/0000/step3_NuGunE10_inMINIAODSIM_450.root\u000a
p172
aV/store/user/fnenna/NuGunE10_Phase2_PUstudies/140X_mcPhase2_14TeV_NuGun_MINIAOD_gemsegm/250524_110223/0000/step3_NuGunE10_inMINIAODSIM_242.root\u000a
p173
aV/store/user/fnenna/NuGunE10_Phase2_PUstudies/140X_mcPhase2_14TeV_NuGun_MINIAOD_gemsegm/250524_110223/0000/step3_NuGunE10_inMINIAODSIM_68.root\u000a
p174
aV/store/user/fnenna/NuGunE10_Phase2_PUstudies/140X_mcPhase2_14TeV_NuGun_MINIAOD_gemsegm/250524_110223/0000/step3_NuGunE10_inMINIAODSIM_659.root\u000a
p175
aV/store/user/fnenna/NuGunE10_Phase2_PUstudies/140X_mcPhase2_14TeV_NuGun_MINIAOD_gemsegm/250524_110223/0000/step3_NuGunE10_inMINIAODSIM_688.root\u000a
p176
aV/store/user/fnenna/NuGunE10_Phase2_PUstudies/140X_mcPhase2_14TeV_NuGun_MINIAOD_gemsegm/250524_110223/0000/step3_NuGunE10_inMINIAODSIM_846.root\u000a
p177
aV/store/user/fnenna/NuGunE10_Phase2_PUstudies/140X_mcPhase2_14TeV_NuGun_MINIAOD_gemsegm/250524_110223/0000/step3_NuGunE10_inMINIAODSIM_972.root\u000a
p178
aV/store/user/fnenna/NuGunE10_Phase2_PUstudies/140X_mcPhase2_14TeV_NuGun_MINIAOD_gemsegm/250524_110223/0000/step3_NuGunE10_inMINIAODSIM_949.root\u000a
p179
aV/store/user/fnenna/NuGunE10_Phase2_PUstudies/140X_mcPhase2_14TeV_NuGun_MINIAOD_gemsegm/250524_110223/0000/step3_NuGunE10_inMINIAODSIM_222.root\u000a
p180
aV/store/user/fnenna/NuGunE10_Phase2_PUstudies/140X_mcPhase2_14TeV_NuGun_MINIAOD_gemsegm/250524_110223/0000/step3_NuGunE10_inMINIAODSIM_342.root\u000a
p181
aV/store/user/fnenna/NuGunE10_Phase2_PUstudies/140X_mcPhase2_14TeV_NuGun_MINIAOD_gemsegm/250524_110223/0000/step3_NuGunE10_inMINIAODSIM_162.root\u000a
p182
aV/store/user/fnenna/NuGunE10_Phase2_PUstudies/140X_mcPhase2_14TeV_NuGun_MINIAOD_gemsegm/250524_110223/0000/step3_NuGunE10_inMINIAODSIM_999.root\u000a
p183
aV/store/user/fnenna/NuGunE10_Phase2_PUstudies/140X_mcPhase2_14TeV_NuGun_MINIAOD_gemsegm/250524_110223/0000/step3_NuGunE10_inMINIAODSIM_876.root\u000a
p184
aV/store/user/fnenna/NuGunE10_Phase2_PUstudies/140X_mcPhase2_14TeV_NuGun_MINIAOD_gemsegm/250524_110223/0000/step3_NuGunE10_inMINIAODSIM_670.root
p185
asg73
Vphys03
p186
sg76
VFileBased
p187
sg74
I5
sg75
I01
sg77
g50
sbsg24
g13
(g27
g15
Ntp188
Rp189
(dp190
g31
g4
sg32
g24
sg33
g34
((lp191
VignoreGlobalBlacklist
p192
aVstorageSite
p193
atp194
Rp195
sg42
(dp196
sg44
g34
((lp197
tp198
Rp199
sg48
Nsg49
I00
sg193
VT2_IT_Bari
p200
sg192
I01
sbsg25
g13
(g27
g15
Ntp201
Rp202
(dp203
g31
g4
sg32
g25
sg33
g34
((lp204
tp205
Rp206
sg42
(dp207
sg44
g34
((lp208
tp209
Rp210
sg48
Nsg49
I00
sbsg26
g13
(g27
g15
Ntp211
Rp212
(dp213
g31
g4
sg32
g26
sg33
g34
((lp214
tp215
Rp216
sg42
(dp217
sg44
g34
((lp218
tp219
Rp220
sg48
Nsg49
I00
sbsbs.