(dp0
VServer
p1
Vcmsweb.cern.ch
p2
sVPort
p3
V
p4
sVRequestName
p5
V250530_072445:fnenna_crab_140X_mcPhase2_NuGunPU200_MiniaodAna_gemsegm_match_v5Prel
p6
sVvoRole
p7
VNULL
p8
sVvoGroup
p9
g4
sVinstance
p10
Vprod
p11
sVOriginalConfig
p12
ccopy_reg
_reconstructor
p13
(cWMCore.Configuration
Configuration
p14
c__builtin__
object
p15
Ntp16
Rp17
(dp18
V_internal_sections
p19
(lp20
VGeneral
p21
aVJobType
p22
aVData
p23
aVSite
p24
aVUser
p25
aVDebug
p26
asg21
g13
(cWMCore.Configuration
ConfigSection
p27
g15
Ntp28
Rp29
(dp30
V_internal_documentation
p31
g4
sV_internal_name
p32
g21
sV_internal_settings
p33
c__builtin__
set
p34
((lp35
VworkArea
p36
aVrequestName
p37
aVtransferLogs
p38
aVtransferOutputs
p39
atp40
Rp41
sV_internal_docstrings
p42
(dp43
sV_internal_children
p44
g34
((lp45
tp46
Rp47
sV_internal_parent_ref
p48
NsV_internal_skipChecks
p49
I00
sg37
V140X_mcPhase2_NuGunPU200_MiniaodAna_gemsegm_match_v5Prel
p50
sg36
Vcrab_projects
p51
sg39
I01
sg38
I01
sbsg22
g13
(g27
g15
Ntp52
Rp53
(dp54
g31
g4
sg32
g22
sg33
g34
((lp55
VpluginName
p56
aVallowUndistributedCMSSW
p57
aVpsetName
p58
atp59
Rp60
sg42
(dp61
sg44
g34
((lp62
tp63
Rp64
sg48
Nsg49
I00
sg56
VAnalysis
p65
sg58
V/lustrehome/felicenenna/tau3mu/CMSSW_14_0_17/src/GenAnalyser/GenAnalyzer/python/genAnalyser_cff.py
p66
sg57
I01
sbsg23
g13
(g27
g15
Ntp67
Rp68
(dp69
g31
g4
sg32
g23
sg33
g34
((lp70
VunitsPerJob
p71
aVinputDBS
p72
aVsplitting
p73
aVoutputDatasetTag
p74
aVpublication
p75
aVoutputPrimaryDataset
p76
aVuserInputFiles
p77
atp78
Rp79
sg42
(dp80
sg44
g34
((lp81
tp82
Rp83
sg48
Nsg49
I00
sg76
VNuGunE10_Phase2_PUstudies_gemsegm
p84
sg77
(lp85
V/store/user/fnenna/NuGunE10_Phase2_PUstudies_gemsegm/140X_mcPhase2_14TeV_NuGun_MINIAOD_gemsegm_match/250528_115540/0000/step3_NuGunE10_inMINIAODSIM_882.root\u000a
p86
aV/store/user/fnenna/NuGunE10_Phase2_PUstudies_gemsegm/140X_mcPhase2_14TeV_NuGun_MINIAOD_gemsegm_match/250528_115540/0000/step3_NuGunE10_inMINIAODSIM_310.root\u000a
p87
aV/store/user/fnenna/NuGunE10_Phase2_PUstudies_gemsegm/140X_mcPhase2_14TeV_NuGun_MINIAOD_gemsegm_match/250528_115540/0000/step3_NuGunE10_inMINIAODSIM_314.root\u000a
p88
aV/store/user/fnenna/NuGunE10_Phase2_PUstudies_gemsegm/140X_mcPhase2_14TeV_NuGun_MINIAOD_gemsegm_match/250528_115540/0000/step3_NuGunE10_inMINIAODSIM_163.root\u000a
p89
aV/store/user/fnenna/NuGunE10_Phase2_PUstudies_gemsegm/140X_mcPhase2_14TeV_NuGun_MINIAOD_gemsegm_match/250528_115540/0000/step3_NuGunE10_inMINIAODSIM_813.root\u000a
p90
aV/store/user/fnenna/NuGunE10_Phase2_PUstudies_gemsegm/140X_mcPhase2_14TeV_NuGun_MINIAOD_gemsegm_match/250528_115540/0000/step3_NuGunE10_inMINIAODSIM_907.root\u000a
p91
aV/store/user/fnenna/NuGunE10_Phase2_PUstudies_gemsegm/140X_mcPhase2_14TeV_NuGun_MINIAOD_gemsegm_match/250528_115540/0000/step3_NuGunE10_inMINIAODSIM_144.root\u000a
p92
aV/store/user/fnenna/NuGunE10_Phase2_PUstudies_gemsegm/140X_mcPhase2_14TeV_NuGun_MINIAOD_gemsegm_match/250528_115540/0000/step3_NuGunE10_inMINIAODSIM_909.root\u000a
p93
aV/store/user/fnenna/NuGunE10_Phase2_PUstudies_gemsegm/140X_mcPhase2_14TeV_NuGun_MINIAOD_gemsegm_match/250528_115540/0000/step3_NuGunE10_inMINIAODSIM_481.root\u000a
p94
aV/store/user/fnenna/NuGunE10_Phase2_PUstudies_gemsegm/140X_mcPhase2_14TeV_NuGun_MINIAOD_gemsegm_match/250528_115540/0000/step3_NuGunE10_inMINIAODSIM_536.root\u000a
p95
aV/store/user/fnenna/NuGunE10_Phase2_PUstudies_gemsegm/140X_mcPhase2_14TeV_NuGun_MINIAOD_gemsegm_match/250528_115540/0000/step3_NuGunE10_inMINIAODSIM_246.root\u000a
p96
aV/store/user/fnenna/NuGunE10_Phase2_PUstudies_gemsegm/140X_mcPhase2_14TeV_NuGun_MINIAOD_gemsegm_match/250528_115540/0000/step3_NuGunE10_inMINIAODSIM_829.root\u000a
p97
aV/store/user/fnenna/NuGunE10_Phase2_PUstudies_gemsegm/140X_mcPhase2_14TeV_NuGun_MINIAOD_gemsegm_match/250528_115540/0000/step3_NuGunE10_inMINIAODSIM_101.root\u000a
p98
aV/store/user/fnenna/NuGunE10_Phase2_PUstudies_gemsegm/140X_mcPhase2_14TeV_NuGun_MINIAOD_gemsegm_match/250528_115540/0000/step3_NuGunE10_inMINIAODSIM_223.root\u000a
p99
aV/store/user/fnenna/NuGunE10_Phase2_PUstudies_gemsegm/140X_mcPhase2_14TeV_NuGun_MINIAOD_gemsegm_match/250528_115540/0000/step3_NuGunE10_inMINIAODSIM_55.root\u000a
p100
aV/store/user/fnenna/NuGunE10_Phase2_PUstudies_gemsegm/140X_mcPhase2_14TeV_NuGun_MINIAOD_gemsegm_match/250528_115540/0000/step3_NuGunE10_inMINIAODSIM_960.root\u000a
p101
aV/store/user/fnenna/NuGunE10_Phase2_PUstudies_gemsegm/140X_mcPhase2_14TeV_NuGun_MINIAOD_gemsegm_match/250528_115540/0000/step3_NuGunE10_inMINIAODSIM_777.root\u000a
p102
aV/store/user/fnenna/NuGunE10_Phase2_PUstudies_gemsegm/140X_mcPhase2_14TeV_NuGun_MINIAOD_gemsegm_match/250528_115540/0000/step3_NuGunE10_inMINIAODSIM_216.root\u000a
p103
aV/store/user/fnenna/NuGunE10_Phase2_PUstudies_gemsegm/140X_mcPhase2_14TeV_NuGun_MINIAOD_gemsegm_match/250528_115540/0000/step3_NuGunE10_inMINIAODSIM_107.root\u000a
p104
aV/store/user/fnenna/NuGunE10_Phase2_PUstudies_gemsegm/140X_mcPhase2_14TeV_NuGun_MINIAOD_gemsegm_match/250528_115540/0000/step3_NuGunE10_inMINIAODSIM_187.root\u000a
p105
aV/store/user/fnenna/NuGunE10_Phase2_PUstudies_gemsegm/140X_mcPhase2_14TeV_NuGun_MINIAOD_gemsegm_match/250528_115540/0000/step3_NuGunE10_inMINIAODSIM_426.root\u000a
p106
aV/store/user/fnenna/NuGunE10_Phase2_PUstudies_gemsegm/140X_mcPhase2_14TeV_NuGun_MINIAOD_gemsegm_match/250528_115540/0000/step3_NuGunE10_inMINIAODSIM_898.root\u000a
p107
aV/store/user/fnenna/NuGunE10_Phase2_PUstudies_gemsegm/140X_mcPhase2_14TeV_NuGun_MINIAOD_gemsegm_match/250528_115540/0000/step3_NuGunE10_inMINIAODSIM_826.root\u000a
p108
aV/store/user/fnenna/NuGunE10_Phase2_PUstudies_gemsegm/140X_mcPhase2_14TeV_NuGun_MINIAOD_gemsegm_match/250528_115540/0000/step3_NuGunE10_inMINIAODSIM_132.root\u000a
p109
aV/store/user/fnenna/NuGunE10_Phase2_PUstudies_gemsegm/140X_mcPhase2_14TeV_NuGun_MINIAOD_gemsegm_match/250528_115540/0000/step3_NuGunE10_inMINIAODSIM_692.root\u000a
p110
aV/store/user/fnenna/NuGunE10_Phase2_PUstudies_gemsegm/140X_mcPhase2_14TeV_NuGun_MINIAOD_gemsegm_match/250528_115540/0000/step3_NuGunE10_inMINIAODSIM_208.root\u000a
p111
aV/store/user/fnenna/NuGunE10_Phase2_PUstudies_gemsegm/140X_mcPhase2_14TeV_NuGun_MINIAOD_gemsegm_match/250528_115540/0000/step3_NuGunE10_inMINIAODSIM_572.root\u000a
p112
aV/store/user/fnenna/NuGunE10_Phase2_PUstudies_gemsegm/140X_mcPhase2_14TeV_NuGun_MINIAOD_gemsegm_match/250528_115540/0000/step3_NuGunE10_inMINIAODSIM_830.root\u000a
p113
aV/store/user/fnenna/NuGunE10_Phase2_PUstudies_gemsegm/140X_mcPhase2_14TeV_NuGun_MINIAOD_gemsegm_match/250528_115540/0000/step3_NuGunE10_inMINIAODSIM_798.root\u000a
p114
aV/store/user/fnenna/NuGunE10_Phase2_PUstudies_gemsegm/140X_mcPhase2_14TeV_NuGun_MINIAOD_gemsegm_match/250528_115540/0000/step3_NuGunE10_inMINIAODSIM_235.root\u000a
p115
aV/store/user/fnenna/NuGunE10_Phase2_PUstudies_gemsegm/140X_mcPhase2_14TeV_NuGun_MINIAOD_gemsegm_match/250528_115540/0000/step3_NuGunE10_inMINIAODSIM_643.root\u000a
p116
aV/store/user/fnenna/NuGunE10_Phase2_PUstudies_gemsegm/140X_mcPhase2_14TeV_NuGun_MINIAOD_gemsegm_match/250528_115540/0000/step3_NuGunE10_inMINIAODSIM_942.root\u000a
p117
aV/store/user/fnenna/NuGunE10_Phase2_PUstudies_gemsegm/140X_mcPhase2_14TeV_NuGun_MINIAOD_gemsegm_match/250528_115540/0000/step3_NuGunE10_inMINIAODSIM_197.root\u000a
p118
aV/store/user/fnenna/NuGunE10_Phase2_PUstudies_gemsegm/140X_mcPhase2_14TeV_NuGun_MINIAOD_gemsegm_match/250528_115540/0000/step3_NuGunE10_inMINIAODSIM_125.root\u000a
p119
aV/store/user/fnenna/NuGunE10_Phase2_PUstudies_gemsegm/140X_mcPhase2_14TeV_NuGun_MINIAOD_gemsegm_match/250528_115540/0000/step3_NuGunE10_inMINIAODSIM_267.root\u000a
p120
aV/store/user/fnenna/NuGunE10_Phase2_PUstudies_gemsegm/140X_mcPhase2_14TeV_NuGun_MINIAOD_gemsegm_match/250528_115540/0000/step3_NuGunE10_inMINIAODSIM_350.root\u000a
p121
aV/store/user/fnenna/NuGunE10_Phase2_PUstudies_gemsegm/140X_mcPhase2_14TeV_NuGun_MINIAOD_gemsegm_match/250528_115540/0000/step3_NuGunE10_inMINIAODSIM_405.root\u000a
p122
aV/store/user/fnenna/NuGunE10_Phase2_PUstudies_gemsegm/140X_mcPhase2_14TeV_NuGun_MINIAOD_gemsegm_match/250528_115540/0000/step3_NuGunE10_inMINIAODSIM_515.root\u000a
p123
aV/store/user/fnenna/NuGunE10_Phase2_PUstudies_gemsegm/140X_mcPhase2_14TeV_NuGun_MINIAOD_gemsegm_match/250528_115540/0000/step3_NuGunE10_inMINIAODSIM_374.root\u000a
p124
aV/store/user/fnenna/NuGunE10_Phase2_PUstudies_gemsegm/140X_mcPhase2_14TeV_NuGun_MINIAOD_gemsegm_match/250528_115540/0000/step3_NuGunE10_inMINIAODSIM_551.root\u000a
p125
aV/store/user/fnenna/NuGunE10_Phase2_PUstudies_gemsegm/140X_mcPhase2_14TeV_NuGun_MINIAOD_gemsegm_match/250528_115540/0000/step3_NuGunE10_inMINIAODSIM_200.root\u000a
p126
aV/store/user/fnenna/NuGunE10_Phase2_PUstudies_gemsegm/140X_mcPhase2_14TeV_NuGun_MINIAOD_gemsegm_match/250528_115540/0000/step3_NuGunE10_inMINIAODSIM_451.root\u000a
p127
aV/store/user/fnenna/NuGunE10_Phase2_PUstudies_gemsegm/140X_mcPhase2_14TeV_NuGun_MINIAOD_gemsegm_match/250528_115540/0000/step3_NuGunE10_inMINIAODSIM_514.root\u000a
p128
aV/store/user/fnenna/NuGunE10_Phase2_PUstudies_gemsegm/140X_mcPhase2_14TeV_NuGun_MINIAOD_gemsegm_match/250528_115540/0000/step3_NuGunE10_inMINIAODSIM_270.root\u000a
p129
aV/store/user/fnenna/NuGunE10_Phase2_PUstudies_gemsegm/140X_mcPhase2_14TeV_NuGun_MINIAOD_gemsegm_match/250528_115540/0000/step3_NuGunE10_inMINIAODSIM_479.root\u000a
p130
aV/store/user/fnenna/NuGunE10_Phase2_PUstudies_gemsegm/140X_mcPhase2_14TeV_NuGun_MINIAOD_gemsegm_match/250528_115540/0000/step3_NuGunE10_inMINIAODSIM_450.root\u000a
p131
aV/store/user/fnenna/NuGunE10_Phase2_PUstudies_gemsegm/140X_mcPhase2_14TeV_NuGun_MINIAOD_gemsegm_match/250528_115540/0000/step3_NuGunE10_inMINIAODSIM_846.root\u000a
p132
aV/store/user/fnenna/NuGunE10_Phase2_PUstudies_gemsegm/140X_mcPhase2_14TeV_NuGun_MINIAOD_gemsegm_match/250528_115540/0000/step3_NuGunE10_inMINIAODSIM_222.root\u000a
p133
aV/store/user/fnenna/NuGunE10_Phase2_PUstudies_gemsegm/140X_mcPhase2_14TeV_NuGun_MINIAOD_gemsegm_match/250528_115540/0000/step3_NuGunE10_inMINIAODSIM_342.root\u000a
p134
aV/store/user/fnenna/NuGunE10_Phase2_PUstudies_gemsegm/140X_mcPhase2_14TeV_NuGun_MINIAOD_gemsegm_match/250528_115540/0000/step3_NuGunE10_inMINIAODSIM_162.root\u000a
p135
aV/store/user/fnenna/NuGunE10_Phase2_PUstudies_gemsegm/140X_mcPhase2_14TeV_NuGun_MINIAOD_gemsegm_match/250528_115540/0000/step3_NuGunE10_inMINIAODSIM_999.root\u000a
p136
aV/store/user/fnenna/NuGunE10_Phase2_PUstudies_gemsegm/140X_mcPhase2_14TeV_NuGun_MINIAOD_gemsegm_match/250528_115540/0000/step3_NuGunE10_inMINIAODSIM_876.root\u000a
p137
aV/store/user/fnenna/NuGunE10_Phase2_PUstudies_gemsegm/140X_mcPhase2_14TeV_NuGun_MINIAOD_gemsegm_match/250528_115540/0000/step3_NuGunE10_inMINIAODSIM_871.root\u000a
p138
aV/store/user/fnenna/NuGunE10_Phase2_PUstudies_gemsegm/140X_mcPhase2_14TeV_NuGun_MINIAOD_gemsegm_match/250528_115540/0000/step3_NuGunE10_inMINIAODSIM_493.root\u000a
p139
aV/store/user/fnenna/NuGunE10_Phase2_PUstudies_gemsegm/140X_mcPhase2_14TeV_NuGun_MINIAOD_gemsegm_match/250528_115540/0000/step3_NuGunE10_inMINIAODSIM_456.root\u000a
p140
aV/store/user/fnenna/NuGunE10_Phase2_PUstudies_gemsegm/140X_mcPhase2_14TeV_NuGun_MINIAOD_gemsegm_match/250528_115540/0000/step3_NuGunE10_inMINIAODSIM_492.root\u000a
p141
aV/store/user/fnenna/NuGunE10_Phase2_PUstudies_gemsegm/140X_mcPhase2_14TeV_NuGun_MINIAOD_gemsegm_match/250528_115540/0000/step3_NuGunE10_inMINIAODSIM_341.root\u000a
p142
aV/store/user/fnenna/NuGunE10_Phase2_PUstudies_gemsegm/140X_mcPhase2_14TeV_NuGun_MINIAOD_gemsegm_match/250528_115540/0000/step3_NuGunE10_inMINIAODSIM_5.root\u000a
p143
aV/store/user/fnenna/NuGunE10_Phase2_PUstudies_gemsegm/140X_mcPhase2_14TeV_NuGun_MINIAOD_gemsegm_match/250528_115540/0000/step3_NuGunE10_inMINIAODSIM_119.root\u000a
p144
aV/store/user/fnenna/NuGunE10_Phase2_PUstudies_gemsegm/140X_mcPhase2_14TeV_NuGun_MINIAOD_gemsegm_match/250528_115540/0000/step3_NuGunE10_inMINIAODSIM_607.root\u000a
p145
aV/store/user/fnenna/NuGunE10_Phase2_PUstudies_gemsegm/140X_mcPhase2_14TeV_NuGun_MINIAOD_gemsegm_match/250528_115540/0000/step3_NuGunE10_inMINIAODSIM_908.root\u000a
p146
aV/store/user/fnenna/NuGunE10_Phase2_PUstudies_gemsegm/140X_mcPhase2_14TeV_NuGun_MINIAOD_gemsegm_match/250528_115540/0000/step3_NuGunE10_inMINIAODSIM_78.root\u000a
p147
aV/store/user/fnenna/NuGunE10_Phase2_PUstudies_gemsegm/140X_mcPhase2_14TeV_NuGun_MINIAOD_gemsegm_match/250528_115540/0000/step3_NuGunE10_inMINIAODSIM_807.root\u000a
p148
aV/store/user/fnenna/NuGunE10_Phase2_PUstudies_gemsegm/140X_mcPhase2_14TeV_NuGun_MINIAOD_gemsegm_match/250528_115540/0000/step3_NuGunE10_inMINIAODSIM_299.root\u000a
p149
aV/store/user/fnenna/NuGunE10_Phase2_PUstudies_gemsegm/140X_mcPhase2_14TeV_NuGun_MINIAOD_gemsegm_match/250528_115540/0000/step3_NuGunE10_inMINIAODSIM_297.root\u000a
p150
aV/store/user/fnenna/NuGunE10_Phase2_PUstudies_gemsegm/140X_mcPhase2_14TeV_NuGun_MINIAOD_gemsegm_match/250528_115540/0000/step3_NuGunE10_inMINIAODSIM_760.root\u000a
p151
aV/store/user/fnenna/NuGunE10_Phase2_PUstudies_gemsegm/140X_mcPhase2_14TeV_NuGun_MINIAOD_gemsegm_match/250528_115540/0000/step3_NuGunE10_inMINIAODSIM_590.root\u000a
p152
aV/store/user/fnenna/NuGunE10_Phase2_PUstudies_gemsegm/140X_mcPhase2_14TeV_NuGun_MINIAOD_gemsegm_match/250528_115540/0000/step3_NuGunE10_inMINIAODSIM_663.root\u000a
p153
aV/store/user/fnenna/NuGunE10_Phase2_PUstudies_gemsegm/140X_mcPhase2_14TeV_NuGun_MINIAOD_gemsegm_match/250528_115540/0000/step3_NuGunE10_inMINIAODSIM_785.root\u000a
p154
aV/store/user/fnenna/NuGunE10_Phase2_PUstudies_gemsegm/140X_mcPhase2_14TeV_NuGun_MINIAOD_gemsegm_match/250528_115540/0000/step3_NuGunE10_inMINIAODSIM_636.root\u000a
p155
aV/store/user/fnenna/NuGunE10_Phase2_PUstudies_gemsegm/140X_mcPhase2_14TeV_NuGun_MINIAOD_gemsegm_match/250528_115540/0000/step3_NuGunE10_inMINIAODSIM_419.root\u000a
p156
aV/store/user/fnenna/NuGunE10_Phase2_PUstudies_gemsegm/140X_mcPhase2_14TeV_NuGun_MINIAOD_gemsegm_match/250528_115540/0000/step3_NuGunE10_inMINIAODSIM_72.root\u000a
p157
aV/store/user/fnenna/NuGunE10_Phase2_PUstudies_gemsegm/140X_mcPhase2_14TeV_NuGun_MINIAOD_gemsegm_match/250528_115540/0000/step3_NuGunE10_inMINIAODSIM_751.root\u000a
p158
aV/store/user/fnenna/NuGunE10_Phase2_PUstudies_gemsegm/140X_mcPhase2_14TeV_NuGun_MINIAOD_gemsegm_match/250528_115540/0000/step3_NuGunE10_inMINIAODSIM_508.root\u000a
p159
aV/store/user/fnenna/NuGunE10_Phase2_PUstudies_gemsegm/140X_mcPhase2_14TeV_NuGun_MINIAOD_gemsegm_match/250528_115540/0000/step3_NuGunE10_inMINIAODSIM_628.root\u000a
p160
aV/store/user/fnenna/NuGunE10_Phase2_PUstudies_gemsegm/140X_mcPhase2_14TeV_NuGun_MINIAOD_gemsegm_match/250528_115540/0000/step3_NuGunE10_inMINIAODSIM_525.root\u000a
p161
aV/store/user/fnenna/NuGunE10_Phase2_PUstudies_gemsegm/140X_mcPhase2_14TeV_NuGun_MINIAOD_gemsegm_match/250528_115540/0000/step3_NuGunE10_inMINIAODSIM_933.root\u000a
p162
aV/store/user/fnenna/NuGunE10_Phase2_PUstudies_gemsegm/140X_mcPhase2_14TeV_NuGun_MINIAOD_gemsegm_match/250528_115540/0000/step3_NuGunE10_inMINIAODSIM_868.root\u000a
p163
aV/store/user/fnenna/NuGunE10_Phase2_PUstudies_gemsegm/140X_mcPhase2_14TeV_NuGun_MINIAOD_gemsegm_match/250528_115540/0000/step3_NuGunE10_inMINIAODSIM_958.root\u000a
p164
aV/store/user/fnenna/NuGunE10_Phase2_PUstudies_gemsegm/140X_mcPhase2_14TeV_NuGun_MINIAOD_gemsegm_match/250528_115540/0000/step3_NuGunE10_inMINIAODSIM_823.root\u000a
p165
aV/store/user/fnenna/NuGunE10_Phase2_PUstudies_gemsegm/140X_mcPhase2_14TeV_NuGun_MINIAOD_gemsegm_match/250528_115540/0000/step3_NuGunE10_inMINIAODSIM_537.root\u000a
p166
aV/store/user/fnenna/NuGunE10_Phase2_PUstudies_gemsegm/140X_mcPhase2_14TeV_NuGun_MINIAOD_gemsegm_match/250528_115540/0000/step3_NuGunE10_inMINIAODSIM_541.root\u000a
p167
aV/store/user/fnenna/NuGunE10_Phase2_PUstudies_gemsegm/140X_mcPhase2_14TeV_NuGun_MINIAOD_gemsegm_match/250528_115540/0000/step3_NuGunE10_inMINIAODSIM_136.root\u000a
p168
aV/store/user/fnenna/NuGunE10_Phase2_PUstudies_gemsegm/140X_mcPhase2_14TeV_NuGun_MINIAOD_gemsegm_match/250528_115540/0000/step3_NuGunE10_inMINIAODSIM_386.root\u000a
p169
aV/store/user/fnenna/NuGunE10_Phase2_PUstudies_gemsegm/140X_mcPhase2_14TeV_NuGun_MINIAOD_gemsegm_match/250528_115540/0000/step3_NuGunE10_inMINIAODSIM_679.root\u000a
p170
aV/store/user/fnenna/NuGunE10_Phase2_PUstudies_gemsegm/140X_mcPhase2_14TeV_NuGun_MINIAOD_gemsegm_match/250528_115540/0000/step3_NuGunE10_inMINIAODSIM_252.root\u000a
p171
aV/store/user/fnenna/NuGunE10_Phase2_PUstudies_gemsegm/140X_mcPhase2_14TeV_NuGun_MINIAOD_gemsegm_match/250528_115540/0000/step3_NuGunE10_inMINIAODSIM_170.root\u000a
p172
aV/store/user/fnenna/NuGunE10_Phase2_PUstudies_gemsegm/140X_mcPhase2_14TeV_NuGun_MINIAOD_gemsegm_match/250528_115540/0000/step3_NuGunE10_inMINIAODSIM_521.root\u000a
p173
aV/store/user/fnenna/NuGunE10_Phase2_PUstudies_gemsegm/140X_mcPhase2_14TeV_NuGun_MINIAOD_gemsegm_match/250528_115540/0000/step3_NuGunE10_inMINIAODSIM_316.root\u000a
p174
aV/store/user/fnenna/NuGunE10_Phase2_PUstudies_gemsegm/140X_mcPhase2_14TeV_NuGun_MINIAOD_gemsegm_match/250528_115540/0000/step3_NuGunE10_inMINIAODSIM_261.root\u000a
p175
aV/store/user/fnenna/NuGunE10_Phase2_PUstudies_gemsegm/140X_mcPhase2_14TeV_NuGun_MINIAOD_gemsegm_match/250528_115540/0000/step3_NuGunE10_inMINIAODSIM_470.root\u000a
p176
aV/store/user/fnenna/NuGunE10_Phase2_PUstudies_gemsegm/140X_mcPhase2_14TeV_NuGun_MINIAOD_gemsegm_match/250528_115540/0000/step3_NuGunE10_inMINIAODSIM_762.root\u000a
p177
aV/store/user/fnenna/NuGunE10_Phase2_PUstudies_gemsegm/140X_mcPhase2_14TeV_NuGun_MINIAOD_gemsegm_match/250528_115540/0000/step3_NuGunE10_inMINIAODSIM_971.root\u000a
p178
aV/store/user/fnenna/NuGunE10_Phase2_PUstudies_gemsegm/140X_mcPhase2_14TeV_NuGun_MINIAOD_gemsegm_match/250528_115540/0000/step3_NuGunE10_inMINIAODSIM_109.root\u000a
p179
aV/store/user/fnenna/NuGunE10_Phase2_PUstudies_gemsegm/140X_mcPhase2_14TeV_NuGun_MINIAOD_gemsegm_match/250528_115540/0000/step3_NuGunE10_inMINIAODSIM_140.root\u000a
p180
aV/store/user/fnenna/NuGunE10_Phase2_PUstudies_gemsegm/140X_mcPhase2_14TeV_NuGun_MINIAOD_gemsegm_match/250528_115540/0000/step3_NuGunE10_inMINIAODSIM_483.root\u000a
p181
aV/store/user/fnenna/NuGunE10_Phase2_PUstudies_gemsegm/140X_mcPhase2_14TeV_NuGun_MINIAOD_gemsegm_match/250528_115540/0000/step3_NuGunE10_inMINIAODSIM_280.root\u000a
p182
aV/store/user/fnenna/NuGunE10_Phase2_PUstudies_gemsegm/140X_mcPhase2_14TeV_NuGun_MINIAOD_gemsegm_match/250528_115540/0000/step3_NuGunE10_inMINIAODSIM_324.root\u000a
p183
aV/store/user/fnenna/NuGunE10_Phase2_PUstudies_gemsegm/140X_mcPhase2_14TeV_NuGun_MINIAOD_gemsegm_match/250528_115540/0000/step3_NuGunE10_inMINIAODSIM_266.root\u000a
p184
aV/store/user/fnenna/NuGunE10_Phase2_PUstudies_gemsegm/140X_mcPhase2_14TeV_NuGun_MINIAOD_gemsegm_match/250528_115540/0000/step3_NuGunE10_inMINIAODSIM_763.root\u000a
p185
aV/store/user/fnenna/NuGunE10_Phase2_PUstudies_gemsegm/140X_mcPhase2_14TeV_NuGun_MINIAOD_gemsegm_match/250528_115540/0000/step3_NuGunE10_inMINIAODSIM_468.root\u000a
p186
aV/store/user/fnenna/NuGunE10_Phase2_PUstudies_gemsegm/140X_mcPhase2_14TeV_NuGun_MINIAOD_gemsegm_match/250528_115540/0000/step3_NuGunE10_inMINIAODSIM_326.root\u000a
p187
aV/store/user/fnenna/NuGunE10_Phase2_PUstudies_gemsegm/140X_mcPhase2_14TeV_NuGun_MINIAOD_gemsegm_match/250528_115540/0000/step3_NuGunE10_inMINIAODSIM_58.root\u000a
p188
aV/store/user/fnenna/NuGunE10_Phase2_PUstudies_gemsegm/140X_mcPhase2_14TeV_NuGun_MINIAOD_gemsegm_match/250528_115540/0000/step3_NuGunE10_inMINIAODSIM_201.root\u000a
p189
aV/store/user/fnenna/NuGunE10_Phase2_PUstudies_gemsegm/140X_mcPhase2_14TeV_NuGun_MINIAOD_gemsegm_match/250528_115540/0000/step3_NuGunE10_inMINIAODSIM_546.root\u000a
p190
aV/store/user/fnenna/NuGunE10_Phase2_PUstudies_gemsegm/140X_mcPhase2_14TeV_NuGun_MINIAOD_gemsegm_match/250528_115540/0000/step3_NuGunE10_inMINIAODSIM_579.root\u000a
p191
aV/store/user/fnenna/NuGunE10_Phase2_PUstudies_gemsegm/140X_mcPhase2_14TeV_NuGun_MINIAOD_gemsegm_match/250528_115540/0000/step3_NuGunE10_inMINIAODSIM_382.root\u000a
p192
aV/store/user/fnenna/NuGunE10_Phase2_PUstudies_gemsegm/140X_mcPhase2_14TeV_NuGun_MINIAOD_gemsegm_match/250528_115540/0000/step3_NuGunE10_inMINIAODSIM_134.root\u000a
p193
aV/store/user/fnenna/NuGunE10_Phase2_PUstudies_gemsegm/140X_mcPhase2_14TeV_NuGun_MINIAOD_gemsegm_match/250528_115540/0000/step3_NuGunE10_inMINIAODSIM_440.root\u000a
p194
aV/store/user/fnenna/NuGunE10_Phase2_PUstudies_gemsegm/140X_mcPhase2_14TeV_NuGun_MINIAOD_gemsegm_match/250528_115540/0000/step3_NuGunE10_inMINIAODSIM_401.root\u000a
p195
aV/store/user/fnenna/NuGunE10_Phase2_PUstudies_gemsegm/140X_mcPhase2_14TeV_NuGun_MINIAOD_gemsegm_match/250528_115540/0000/step3_NuGunE10_inMINIAODSIM_768.root\u000a
p196
aV/store/user/fnenna/NuGunE10_Phase2_PUstudies_gemsegm/140X_mcPhase2_14TeV_NuGun_MINIAOD_gemsegm_match/250528_115540/0000/step3_NuGunE10_inMINIAODSIM_300.root\u000a
p197
aV/store/user/fnenna/NuGunE10_Phase2_PUstudies_gemsegm/140X_mcPhase2_14TeV_NuGun_MINIAOD_gemsegm_match/250528_115540/0000/step3_NuGunE10_inMINIAODSIM_505.root\u000a
p198
aV/store/user/fnenna/NuGunE10_Phase2_PUstudies_gemsegm/140X_mcPhase2_14TeV_NuGun_MINIAOD_gemsegm_match/250528_115540/0000/step3_NuGunE10_inMINIAODSIM_509.root\u000a
p199
aV/store/user/fnenna/NuGunE10_Phase2_PUstudies_gemsegm/140X_mcPhase2_14TeV_NuGun_MINIAOD_gemsegm_match/250528_115540/0000/step3_NuGunE10_inMINIAODSIM_585.root\u000a
p200
aV/store/user/fnenna/NuGunE10_Phase2_PUstudies_gemsegm/140X_mcPhase2_14TeV_NuGun_MINIAOD_gemsegm_match/250528_115540/0000/step3_NuGunE10_inMINIAODSIM_385.root\u000a
p201
aV/store/user/fnenna/NuGunE10_Phase2_PUstudies_gemsegm/140X_mcPhase2_14TeV_NuGun_MINIAOD_gemsegm_match/250528_115540/0000/step3_NuGunE10_inMINIAODSIM_445.root\u000a
p202
aV/store/user/fnenna/NuGunE10_Phase2_PUstudies_gemsegm/140X_mcPhase2_14TeV_NuGun_MINIAOD_gemsegm_match/250528_115540/0000/step3_NuGunE10_inMINIAODSIM_218.root\u000a
p203
aV/store/user/fnenna/NuGunE10_Phase2_PUstudies_gemsegm/140X_mcPhase2_14TeV_NuGun_MINIAOD_gemsegm_match/250528_115540/0000/step3_NuGunE10_inMINIAODSIM_296.root\u000a
p204
aV/store/user/fnenna/NuGunE10_Phase2_PUstudies_gemsegm/140X_mcPhase2_14TeV_NuGun_MINIAOD_gemsegm_match/250528_115540/0000/step3_NuGunE10_inMINIAODSIM_899.root\u000a
p205
aV/store/user/fnenna/NuGunE10_Phase2_PUstudies_gemsegm/140X_mcPhase2_14TeV_NuGun_MINIAOD_gemsegm_match/250528_115540/0000/step3_NuGunE10_inMINIAODSIM_61.root\u000a
p206
aV/store/user/fnenna/NuGunE10_Phase2_PUstudies_gemsegm/140X_mcPhase2_14TeV_NuGun_MINIAOD_gemsegm_match/250528_115540/0000/step3_NuGunE10_inMINIAODSIM_413.root\u000a
p207
aV/store/user/fnenna/NuGunE10_Phase2_PUstudies_gemsegm/140X_mcPhase2_14TeV_NuGun_MINIAOD_gemsegm_match/250528_115540/0000/step3_NuGunE10_inMINIAODSIM_228.root\u000a
p208
aV/store/user/fnenna/NuGunE10_Phase2_PUstudies_gemsegm/140X_mcPhase2_14TeV_NuGun_MINIAOD_gemsegm_match/250528_115540/0000/step3_NuGunE10_inMINIAODSIM_158.root\u000a
p209
aV/store/user/fnenna/NuGunE10_Phase2_PUstudies_gemsegm/140X_mcPhase2_14TeV_NuGun_MINIAOD_gemsegm_match/250528_115540/0000/step3_NuGunE10_inMINIAODSIM_775.root\u000a
p210
aV/store/user/fnenna/NuGunE10_Phase2_PUstudies_gemsegm/140X_mcPhase2_14TeV_NuGun_MINIAOD_gemsegm_match/250528_115540/0000/step3_NuGunE10_inMINIAODSIM_257.root\u000a
p211
aV/store/user/fnenna/NuGunE10_Phase2_PUstudies_gemsegm/140X_mcPhase2_14TeV_NuGun_MINIAOD_gemsegm_match/250528_115540/0000/step3_NuGunE10_inMINIAODSIM_139.root\u000a
p212
aV/store/user/fnenna/NuGunE10_Phase2_PUstudies_gemsegm/140X_mcPhase2_14TeV_NuGun_MINIAOD_gemsegm_match/250528_115540/0000/step3_NuGunE10_inMINIAODSIM_371.root\u000a
p213
aV/store/user/fnenna/NuGunE10_Phase2_PUstudies_gemsegm/140X_mcPhase2_14TeV_NuGun_MINIAOD_gemsegm_match/250528_115540/0000/step3_NuGunE10_inMINIAODSIM_746.root\u000a
p214
aV/store/user/fnenna/NuGunE10_Phase2_PUstudies_gemsegm/140X_mcPhase2_14TeV_NuGun_MINIAOD_gemsegm_match/250528_115540/0000/step3_NuGunE10_inMINIAODSIM_678.root\u000a
p215
aV/store/user/fnenna/NuGunE10_Phase2_PUstudies_gemsegm/140X_mcPhase2_14TeV_NuGun_MINIAOD_gemsegm_match/250528_115540/0000/step3_NuGunE10_inMINIAODSIM_189.root\u000a
p216
aV/store/user/fnenna/NuGunE10_Phase2_PUstudies_gemsegm/140X_mcPhase2_14TeV_NuGun_MINIAOD_gemsegm_match/250528_115540/0000/step3_NuGunE10_inMINIAODSIM_414.root\u000a
p217
aV/store/user/fnenna/NuGunE10_Phase2_PUstudies_gemsegm/140X_mcPhase2_14TeV_NuGun_MINIAOD_gemsegm_match/250528_115540/0000/step3_NuGunE10_inMINIAODSIM_461.root\u000a
p218
aV/store/user/fnenna/NuGunE10_Phase2_PUstudies_gemsegm/140X_mcPhase2_14TeV_NuGun_MINIAOD_gemsegm_match/250528_115540/0000/step3_NuGunE10_inMINIAODSIM_91.root\u000a
p219
aV/store/user/fnenna/NuGunE10_Phase2_PUstudies_gemsegm/140X_mcPhase2_14TeV_NuGun_MINIAOD_gemsegm_match/250528_115540/0000/step3_NuGunE10_inMINIAODSIM_984.root\u000a
p220
aV/store/user/fnenna/NuGunE10_Phase2_PUstudies_gemsegm/140X_mcPhase2_14TeV_NuGun_MINIAOD_gemsegm_match/250528_115540/0000/step3_NuGunE10_inMINIAODSIM_289.root\u000a
p221
aV/store/user/fnenna/NuGunE10_Phase2_PUstudies_gemsegm/140X_mcPhase2_14TeV_NuGun_MINIAOD_gemsegm_match/250528_115540/0000/step3_NuGunE10_inMINIAODSIM_930.root\u000a
p222
aV/store/user/fnenna/NuGunE10_Phase2_PUstudies_gemsegm/140X_mcPhase2_14TeV_NuGun_MINIAOD_gemsegm_match/250528_115540/0000/step3_NuGunE10_inMINIAODSIM_725.root\u000a
p223
aV/store/user/fnenna/NuGunE10_Phase2_PUstudies_gemsegm/140X_mcPhase2_14TeV_NuGun_MINIAOD_gemsegm_match/250528_115540/0000/step3_NuGunE10_inMINIAODSIM_274.root\u000a
p224
aV/store/user/fnenna/NuGunE10_Phase2_PUstudies_gemsegm/140X_mcPhase2_14TeV_NuGun_MINIAOD_gemsegm_match/250528_115540/0000/step3_NuGunE10_inMINIAODSIM_952.root\u000a
p225
aV/store/user/fnenna/NuGunE10_Phase2_PUstudies_gemsegm/140X_mcPhase2_14TeV_NuGun_MINIAOD_gemsegm_match/250528_115540/0000/step3_NuGunE10_inMINIAODSIM_146.root\u000a
p226
aV/store/user/fnenna/NuGunE10_Phase2_PUstudies_gemsegm/140X_mcPhase2_14TeV_NuGun_MINIAOD_gemsegm_match/250528_115540/0000/step3_NuGunE10_inMINIAODSIM_538.root\u000a
p227
aV/store/user/fnenna/NuGunE10_Phase2_PUstudies_gemsegm/140X_mcPhase2_14TeV_NuGun_MINIAOD_gemsegm_match/250528_115540/0000/step3_NuGunE10_inMINIAODSIM_837.root\u000a
p228
aV/store/user/fnenna/NuGunE10_Phase2_PUstudies_gemsegm/140X_mcPhase2_14TeV_NuGun_MINIAOD_gemsegm_match/250528_115540/0000/step3_NuGunE10_inMINIAODSIM_600.root\u000a
p229
aV/store/user/fnenna/NuGunE10_Phase2_PUstudies_gemsegm/140X_mcPhase2_14TeV_NuGun_MINIAOD_gemsegm_match/250528_115540/0000/step3_NuGunE10_inMINIAODSIM_687.root\u000a
p230
aV/store/user/fnenna/NuGunE10_Phase2_PUstudies_gemsegm/140X_mcPhase2_14TeV_NuGun_MINIAOD_gemsegm_match/250528_115540/0000/step3_NuGunE10_inMINIAODSIM_533.root\u000a
p231
aV/store/user/fnenna/NuGunE10_Phase2_PUstudies_gemsegm/140X_mcPhase2_14TeV_NuGun_MINIAOD_gemsegm_match/250528_115540/0000/step3_NuGunE10_inMINIAODSIM_202.root\u000a
p232
aV/store/user/fnenna/NuGunE10_Phase2_PUstudies_gemsegm/140X_mcPhase2_14TeV_NuGun_MINIAOD_gemsegm_match/250528_115540/0000/step3_NuGunE10_inMINIAODSIM_221.root\u000a
p233
aV/store/user/fnenna/NuGunE10_Phase2_PUstudies_gemsegm/140X_mcPhase2_14TeV_NuGun_MINIAOD_gemsegm_match/250528_115540/0000/step3_NuGunE10_inMINIAODSIM_591.root\u000a
p234
aV/store/user/fnenna/NuGunE10_Phase2_PUstudies_gemsegm/140X_mcPhase2_14TeV_NuGun_MINIAOD_gemsegm_match/250528_115540/0000/step3_NuGunE10_inMINIAODSIM_369.root\u000a
p235
aV/store/user/fnenna/NuGunE10_Phase2_PUstudies_gemsegm/140X_mcPhase2_14TeV_NuGun_MINIAOD_gemsegm_match/250528_115540/0000/step3_NuGunE10_inMINIAODSIM_669.root\u000a
p236
aV/store/user/fnenna/NuGunE10_Phase2_PUstudies_gemsegm/140X_mcPhase2_14TeV_NuGun_MINIAOD_gemsegm_match/250528_115540/0000/step3_NuGunE10_inMINIAODSIM_939.root\u000a
p237
aV/store/user/fnenna/NuGunE10_Phase2_PUstudies_gemsegm/140X_mcPhase2_14TeV_NuGun_MINIAOD_gemsegm_match/250528_115540/0000/step3_NuGunE10_inMINIAODSIM_779.root\u000a
p238
aV/store/user/fnenna/NuGunE10_Phase2_PUstudies_gemsegm/140X_mcPhase2_14TeV_NuGun_MINIAOD_gemsegm_match/250528_115540/0000/step3_NuGunE10_inMINIAODSIM_159.root\u000a
p239
aV/store/user/fnenna/NuGunE10_Phase2_PUstudies_gemsegm/140X_mcPhase2_14TeV_NuGun_MINIAOD_gemsegm_match/250528_115540/0000/step3_NuGunE10_inMINIAODSIM_482.root\u000a
p240
aV/store/user/fnenna/NuGunE10_Phase2_PUstudies_gemsegm/140X_mcPhase2_14TeV_NuGun_MINIAOD_gemsegm_match/250528_115540/0000/step3_NuGunE10_inMINIAODSIM_704.root\u000a
p241
aV/store/user/fnenna/NuGunE10_Phase2_PUstudies_gemsegm/140X_mcPhase2_14TeV_NuGun_MINIAOD_gemsegm_match/250528_115540/0000/step3_NuGunE10_inMINIAODSIM_631.root\u000a
p242
aV/store/user/fnenna/NuGunE10_Phase2_PUstudies_gemsegm/140X_mcPhase2_14TeV_NuGun_MINIAOD_gemsegm_match/250528_115540/0000/step3_NuGunE10_inMINIAODSIM_736.root\u000a
p243
aV/store/user/fnenna/NuGunE10_Phase2_PUstudies_gemsegm/140X_mcPhase2_14TeV_NuGun_MINIAOD_gemsegm_match/250528_115540/0000/step3_NuGunE10_inMINIAODSIM_529.root\u000a
p244
aV/store/user/fnenna/NuGunE10_Phase2_PUstudies_gemsegm/140X_mcPhase2_14TeV_NuGun_MINIAOD_gemsegm_match/250528_115540/0000/step3_NuGunE10_inMINIAODSIM_752.root\u000a
p245
aV/store/user/fnenna/NuGunE10_Phase2_PUstudies_gemsegm/140X_mcPhase2_14TeV_NuGun_MINIAOD_gemsegm_match/250528_115540/0000/step3_NuGunE10_inMINIAODSIM_795.root\u000a
p246
aV/store/user/fnenna/NuGunE10_Phase2_PUstudies_gemsegm/140X_mcPhase2_14TeV_NuGun_MINIAOD_gemsegm_match/250528_115540/0000/step3_NuGunE10_inMINIAODSIM_175.root\u000a
p247
aV/store/user/fnenna/NuGunE10_Phase2_PUstudies_gemsegm/140X_mcPhase2_14TeV_NuGun_MINIAOD_gemsegm_match/250528_115540/0000/step3_NuGunE10_inMINIAODSIM_423.root\u000a
p248
aV/store/user/fnenna/NuGunE10_Phase2_PUstudies_gemsegm/140X_mcPhase2_14TeV_NuGun_MINIAOD_gemsegm_match/250528_115540/0000/step3_NuGunE10_inMINIAODSIM_764.root\u000a
p249
aV/store/user/fnenna/NuGunE10_Phase2_PUstudies_gemsegm/140X_mcPhase2_14TeV_NuGun_MINIAOD_gemsegm_match/250528_115540/0000/step3_NuGunE10_inMINIAODSIM_449.root\u000a
p250
aV/store/user/fnenna/NuGunE10_Phase2_PUstudies_gemsegm/140X_mcPhase2_14TeV_NuGun_MINIAOD_gemsegm_match/250528_115540/0000/step3_NuGunE10_inMINIAODSIM_320.root\u000a
p251
aV/store/user/fnenna/NuGunE10_Phase2_PUstudies_gemsegm/140X_mcPhase2_14TeV_NuGun_MINIAOD_gemsegm_match/250528_115540/0000/step3_NuGunE10_inMINIAODSIM_169.root\u000a
p252
aV/store/user/fnenna/NuGunE10_Phase2_PUstudies_gemsegm/140X_mcPhase2_14TeV_NuGun_MINIAOD_gemsegm_match/250528_115540/0000/step3_NuGunE10_inMINIAODSIM_638.root\u000a
p253
aV/store/user/fnenna/NuGunE10_Phase2_PUstudies_gemsegm/140X_mcPhase2_14TeV_NuGun_MINIAOD_gemsegm_match/250528_115540/0000/step3_NuGunE10_inMINIAODSIM_112.root\u000a
p254
aV/store/user/fnenna/NuGunE10_Phase2_PUstudies_gemsegm/140X_mcPhase2_14TeV_NuGun_MINIAOD_gemsegm_match/250528_115540/0000/step3_NuGunE10_inMINIAODSIM_122.root\u000a
p255
aV/store/user/fnenna/NuGunE10_Phase2_PUstudies_gemsegm/140X_mcPhase2_14TeV_NuGun_MINIAOD_gemsegm_match/250528_115540/0000/step3_NuGunE10_inMINIAODSIM_13.root\u000a
p256
aV/store/user/fnenna/NuGunE10_Phase2_PUstudies_gemsegm/140X_mcPhase2_14TeV_NuGun_MINIAOD_gemsegm_match/250528_115540/0000/step3_NuGunE10_inMINIAODSIM_425.root\u000a
p257
aV/store/user/fnenna/NuGunE10_Phase2_PUstudies_gemsegm/140X_mcPhase2_14TeV_NuGun_MINIAOD_gemsegm_match/250528_115540/0000/step3_NuGunE10_inMINIAODSIM_694.root\u000a
p258
aV/store/user/fnenna/NuGunE10_Phase2_PUstudies_gemsegm/140X_mcPhase2_14TeV_NuGun_MINIAOD_gemsegm_match/250528_115540/0000/step3_NuGunE10_inMINIAODSIM_226.root\u000a
p259
aV/store/user/fnenna/NuGunE10_Phase2_PUstudies_gemsegm/140X_mcPhase2_14TeV_NuGun_MINIAOD_gemsegm_match/250528_115540/0000/step3_NuGunE10_inMINIAODSIM_241.root\u000a
p260
aV/store/user/fnenna/NuGunE10_Phase2_PUstudies_gemsegm/140X_mcPhase2_14TeV_NuGun_MINIAOD_gemsegm_match/250528_115540/0000/step3_NuGunE10_inMINIAODSIM_943.root\u000a
p261
aV/store/user/fnenna/NuGunE10_Phase2_PUstudies_gemsegm/140X_mcPhase2_14TeV_NuGun_MINIAOD_gemsegm_match/250528_115540/0000/step3_NuGunE10_inMINIAODSIM_156.root\u000a
p262
aV/store/user/fnenna/NuGunE10_Phase2_PUstudies_gemsegm/140X_mcPhase2_14TeV_NuGun_MINIAOD_gemsegm_match/250528_115540/0000/step3_NuGunE10_inMINIAODSIM_624.root\u000a
p263
aV/store/user/fnenna/NuGunE10_Phase2_PUstudies_gemsegm/140X_mcPhase2_14TeV_NuGun_MINIAOD_gemsegm_match/250528_115540/0000/step3_NuGunE10_inMINIAODSIM_41.root\u000a
p264
aV/store/user/fnenna/NuGunE10_Phase2_PUstudies_gemsegm/140X_mcPhase2_14TeV_NuGun_MINIAOD_gemsegm_match/250528_115540/0000/step3_NuGunE10_inMINIAODSIM_937.root\u000a
p265
aV/store/user/fnenna/NuGunE10_Phase2_PUstudies_gemsegm/140X_mcPhase2_14TeV_NuGun_MINIAOD_gemsegm_match/250528_115540/0000/step3_NuGunE10_inMINIAODSIM_39.root\u000a
p266
aV/store/user/fnenna/NuGunE10_Phase2_PUstudies_gemsegm/140X_mcPhase2_14TeV_NuGun_MINIAOD_gemsegm_match/250528_115540/0000/step3_NuGunE10_inMINIAODSIM_517.root\u000a
p267
aV/store/user/fnenna/NuGunE10_Phase2_PUstudies_gemsegm/140X_mcPhase2_14TeV_NuGun_MINIAOD_gemsegm_match/250528_115540/0000/step3_NuGunE10_inMINIAODSIM_115.root\u000a
p268
aV/store/user/fnenna/NuGunE10_Phase2_PUstudies_gemsegm/140X_mcPhase2_14TeV_NuGun_MINIAOD_gemsegm_match/250528_115540/0000/step3_NuGunE10_inMINIAODSIM_42.root\u000a
p269
aV/store/user/fnenna/NuGunE10_Phase2_PUstudies_gemsegm/140X_mcPhase2_14TeV_NuGun_MINIAOD_gemsegm_match/250528_115540/0000/step3_NuGunE10_inMINIAODSIM_797.root\u000a
p270
aV/store/user/fnenna/NuGunE10_Phase2_PUstudies_gemsegm/140X_mcPhase2_14TeV_NuGun_MINIAOD_gemsegm_match/250528_115540/0000/step3_NuGunE10_inMINIAODSIM_867.root\u000a
p271
aV/store/user/fnenna/NuGunE10_Phase2_PUstudies_gemsegm/140X_mcPhase2_14TeV_NuGun_MINIAOD_gemsegm_match/250528_115540/0000/step3_NuGunE10_inMINIAODSIM_283.root\u000a
p272
aV/store/user/fnenna/NuGunE10_Phase2_PUstudies_gemsegm/140X_mcPhase2_14TeV_NuGun_MINIAOD_gemsegm_match/250528_115540/0000/step3_NuGunE10_inMINIAODSIM_804.root\u000a
p273
aV/store/user/fnenna/NuGunE10_Phase2_PUstudies_gemsegm/140X_mcPhase2_14TeV_NuGun_MINIAOD_gemsegm_match/250528_115540/0000/step3_NuGunE10_inMINIAODSIM_150.root\u000a
p274
aV/store/user/fnenna/NuGunE10_Phase2_PUstudies_gemsegm/140X_mcPhase2_14TeV_NuGun_MINIAOD_gemsegm_match/250528_115540/0000/step3_NuGunE10_inMINIAODSIM_946.root\u000a
p275
aV/store/user/fnenna/NuGunE10_Phase2_PUstudies_gemsegm/140X_mcPhase2_14TeV_NuGun_MINIAOD_gemsegm_match/250528_115540/0000/step3_NuGunE10_inMINIAODSIM_290.root\u000a
p276
aV/store/user/fnenna/NuGunE10_Phase2_PUstudies_gemsegm/140X_mcPhase2_14TeV_NuGun_MINIAOD_gemsegm_match/250528_115540/0000/step3_NuGunE10_inMINIAODSIM_288.root\u000a
p277
aV/store/user/fnenna/NuGunE10_Phase2_PUstudies_gemsegm/140X_mcPhase2_14TeV_NuGun_MINIAOD_gemsegm_match/250528_115540/0000/step3_NuGunE10_inMINIAODSIM_757.root\u000a
p278
aV/store/user/fnenna/NuGunE10_Phase2_PUstudies_gemsegm/140X_mcPhase2_14TeV_NuGun_MINIAOD_gemsegm_match/250528_115540/0000/step3_NuGunE10_inMINIAODSIM_181.root\u000a
p279
aV/store/user/fnenna/NuGunE10_Phase2_PUstudies_gemsegm/140X_mcPhase2_14TeV_NuGun_MINIAOD_gemsegm_match/250528_115540/0000/step3_NuGunE10_inMINIAODSIM_802.root\u000a
p280
aV/store/user/fnenna/NuGunE10_Phase2_PUstudies_gemsegm/140X_mcPhase2_14TeV_NuGun_MINIAOD_gemsegm_match/250528_115540/0000/step3_NuGunE10_inMINIAODSIM_772.root\u000a
p281
aV/store/user/fnenna/NuGunE10_Phase2_PUstudies_gemsegm/140X_mcPhase2_14TeV_NuGun_MINIAOD_gemsegm_match/250528_115540/0000/step3_NuGunE10_inMINIAODSIM_420.root\u000a
p282
aV/store/user/fnenna/NuGunE10_Phase2_PUstudies_gemsegm/140X_mcPhase2_14TeV_NuGun_MINIAOD_gemsegm_match/250528_115540/0000/step3_NuGunE10_inMINIAODSIM_968.root\u000a
p283
aV/store/user/fnenna/NuGunE10_Phase2_PUstudies_gemsegm/140X_mcPhase2_14TeV_NuGun_MINIAOD_gemsegm_match/250528_115540/0000/step3_NuGunE10_inMINIAODSIM_520.root\u000a
p284
aV/store/user/fnenna/NuGunE10_Phase2_PUstudies_gemsegm/140X_mcPhase2_14TeV_NuGun_MINIAOD_gemsegm_match/250528_115540/0000/step3_NuGunE10_inMINIAODSIM_409.root\u000a
p285
aV/store/user/fnenna/NuGunE10_Phase2_PUstudies_gemsegm/140X_mcPhase2_14TeV_NuGun_MINIAOD_gemsegm_match/250528_115540/0000/step3_NuGunE10_inMINIAODSIM_791.root\u000a
p286
aV/store/user/fnenna/NuGunE10_Phase2_PUstudies_gemsegm/140X_mcPhase2_14TeV_NuGun_MINIAOD_gemsegm_match/250528_115540/0000/step3_NuGunE10_inMINIAODSIM_217.root\u000a
p287
aV/store/user/fnenna/NuGunE10_Phase2_PUstudies_gemsegm/140X_mcPhase2_14TeV_NuGun_MINIAOD_gemsegm_match/250528_115540/0000/step3_NuGunE10_inMINIAODSIM_627.root\u000a
p288
aV/store/user/fnenna/NuGunE10_Phase2_PUstudies_gemsegm/140X_mcPhase2_14TeV_NuGun_MINIAOD_gemsegm_match/250528_115540/0000/step3_NuGunE10_inMINIAODSIM_835.root\u000a
p289
aV/store/user/fnenna/NuGunE10_Phase2_PUstudies_gemsegm/140X_mcPhase2_14TeV_NuGun_MINIAOD_gemsegm_match/250528_115540/0000/step3_NuGunE10_inMINIAODSIM_356.root\u000a
p290
aV/store/user/fnenna/NuGunE10_Phase2_PUstudies_gemsegm/140X_mcPhase2_14TeV_NuGun_MINIAOD_gemsegm_match/250528_115540/0000/step3_NuGunE10_inMINIAODSIM_434.root\u000a
p291
aV/store/user/fnenna/NuGunE10_Phase2_PUstudies_gemsegm/140X_mcPhase2_14TeV_NuGun_MINIAOD_gemsegm_match/250528_115540/0000/step3_NuGunE10_inMINIAODSIM_480.root\u000a
p292
aV/store/user/fnenna/NuGunE10_Phase2_PUstudies_gemsegm/140X_mcPhase2_14TeV_NuGun_MINIAOD_gemsegm_match/250528_115540/0000/step3_NuGunE10_inMINIAODSIM_231.root\u000a
p293
aV/store/user/fnenna/NuGunE10_Phase2_PUstudies_gemsegm/140X_mcPhase2_14TeV_NuGun_MINIAOD_gemsegm_match/250528_115540/0000/step3_NuGunE10_inMINIAODSIM_213.root\u000a
p294
aV/store/user/fnenna/NuGunE10_Phase2_PUstudies_gemsegm/140X_mcPhase2_14TeV_NuGun_MINIAOD_gemsegm_match/250528_115540/0000/step3_NuGunE10_inMINIAODSIM_776.root\u000a
p295
aV/store/user/fnenna/NuGunE10_Phase2_PUstudies_gemsegm/140X_mcPhase2_14TeV_NuGun_MINIAOD_gemsegm_match/250528_115540/0000/step3_NuGunE10_inMINIAODSIM_550.root\u000a
p296
aV/store/user/fnenna/NuGunE10_Phase2_PUstudies_gemsegm/140X_mcPhase2_14TeV_NuGun_MINIAOD_gemsegm_match/250528_115540/0000/step3_NuGunE10_inMINIAODSIM_346.root\u000a
p297
aV/store/user/fnenna/NuGunE10_Phase2_PUstudies_gemsegm/140X_mcPhase2_14TeV_NuGun_MINIAOD_gemsegm_match/250528_115540/0000/step3_NuGunE10_inMINIAODSIM_333.root\u000a
p298
aV/store/user/fnenna/NuGunE10_Phase2_PUstudies_gemsegm/140X_mcPhase2_14TeV_NuGun_MINIAOD_gemsegm_match/250528_115540/0000/step3_NuGunE10_inMINIAODSIM_519.root\u000a
p299
aV/store/user/fnenna/NuGunE10_Phase2_PUstudies_gemsegm/140X_mcPhase2_14TeV_NuGun_MINIAOD_gemsegm_match/250528_115540/0000/step3_NuGunE10_inMINIAODSIM_653.root\u000a
p300
aV/store/user/fnenna/NuGunE10_Phase2_PUstudies_gemsegm/140X_mcPhase2_14TeV_NuGun_MINIAOD_gemsegm_match/250528_115540/0000/step3_NuGunE10_inMINIAODSIM_83.root\u000a
p301
aV/store/user/fnenna/NuGunE10_Phase2_PUstudies_gemsegm/140X_mcPhase2_14TeV_NuGun_MINIAOD_gemsegm_match/250528_115540/0000/step3_NuGunE10_inMINIAODSIM_243.root\u000a
p302
aV/store/user/fnenna/NuGunE10_Phase2_PUstudies_gemsegm/140X_mcPhase2_14TeV_NuGun_MINIAOD_gemsegm_match/250528_115540/0000/step3_NuGunE10_inMINIAODSIM_457.root\u000a
p303
aV/store/user/fnenna/NuGunE10_Phase2_PUstudies_gemsegm/140X_mcPhase2_14TeV_NuGun_MINIAOD_gemsegm_match/250528_115540/0000/step3_NuGunE10_inMINIAODSIM_666.root\u000a
p304
aV/store/user/fnenna/NuGunE10_Phase2_PUstudies_gemsegm/140X_mcPhase2_14TeV_NuGun_MINIAOD_gemsegm_match/250528_115540/0000/step3_NuGunE10_inMINIAODSIM_790.root\u000a
p305
aV/store/user/fnenna/NuGunE10_Phase2_PUstudies_gemsegm/140X_mcPhase2_14TeV_NuGun_MINIAOD_gemsegm_match/250528_115540/0000/step3_NuGunE10_inMINIAODSIM_625.root\u000a
p306
aV/store/user/fnenna/NuGunE10_Phase2_PUstudies_gemsegm/140X_mcPhase2_14TeV_NuGun_MINIAOD_gemsegm_match/250528_115540/0000/step3_NuGunE10_inMINIAODSIM_827.root\u000a
p307
aV/store/user/fnenna/NuGunE10_Phase2_PUstudies_gemsegm/140X_mcPhase2_14TeV_NuGun_MINIAOD_gemsegm_match/250528_115540/0000/step3_NuGunE10_inMINIAODSIM_349.root\u000a
p308
aV/store/user/fnenna/NuGunE10_Phase2_PUstudies_gemsegm/140X_mcPhase2_14TeV_NuGun_MINIAOD_gemsegm_match/250528_115540/0000/step3_NuGunE10_inMINIAODSIM_539.root\u000a
p309
aV/store/user/fnenna/NuGunE10_Phase2_PUstudies_gemsegm/140X_mcPhase2_14TeV_NuGun_MINIAOD_gemsegm_match/250528_115540/0000/step3_NuGunE10_inMINIAODSIM_594.root\u000a
p310
aV/store/user/fnenna/NuGunE10_Phase2_PUstudies_gemsegm/140X_mcPhase2_14TeV_NuGun_MINIAOD_gemsegm_match/250528_115540/0000/step3_NuGunE10_inMINIAODSIM_255.root\u000a
p311
aV/store/user/fnenna/NuGunE10_Phase2_PUstudies_gemsegm/140X_mcPhase2_14TeV_NuGun_MINIAOD_gemsegm_match/250528_115540/0000/step3_NuGunE10_inMINIAODSIM_542.root\u000a
p312
aV/store/user/fnenna/NuGunE10_Phase2_PUstudies_gemsegm/140X_mcPhase2_14TeV_NuGun_MINIAOD_gemsegm_match/250528_115540/0000/step3_NuGunE10_inMINIAODSIM_637.root\u000a
p313
aV/store/user/fnenna/NuGunE10_Phase2_PUstudies_gemsegm/140X_mcPhase2_14TeV_NuGun_MINIAOD_gemsegm_match/250528_115540/0000/step3_NuGunE10_inMINIAODSIM_651.root\u000a
p314
aV/store/user/fnenna/NuGunE10_Phase2_PUstudies_gemsegm/140X_mcPhase2_14TeV_NuGun_MINIAOD_gemsegm_match/250528_115540/0000/step3_NuGunE10_inMINIAODSIM_924.root\u000a
p315
aV/store/user/fnenna/NuGunE10_Phase2_PUstudies_gemsegm/140X_mcPhase2_14TeV_NuGun_MINIAOD_gemsegm_match/250528_115540/0000/step3_NuGunE10_inMINIAODSIM_81.root\u000a
p316
aV/store/user/fnenna/NuGunE10_Phase2_PUstudies_gemsegm/140X_mcPhase2_14TeV_NuGun_MINIAOD_gemsegm_match/250528_115540/0000/step3_NuGunE10_inMINIAODSIM_379.root\u000a
p317
aV/store/user/fnenna/NuGunE10_Phase2_PUstudies_gemsegm/140X_mcPhase2_14TeV_NuGun_MINIAOD_gemsegm_match/250528_115540/0000/step3_NuGunE10_inMINIAODSIM_580.root\u000a
p318
aV/store/user/fnenna/NuGunE10_Phase2_PUstudies_gemsegm/140X_mcPhase2_14TeV_NuGun_MINIAOD_gemsegm_match/250528_115540/0000/step3_NuGunE10_inMINIAODSIM_338.root\u000a
p319
aV/store/user/fnenna/NuGunE10_Phase2_PUstudies_gemsegm/140X_mcPhase2_14TeV_NuGun_MINIAOD_gemsegm_match/250528_115540/0000/step3_NuGunE10_inMINIAODSIM_630.root\u000a
p320
aV/store/user/fnenna/NuGunE10_Phase2_PUstudies_gemsegm/140X_mcPhase2_14TeV_NuGun_MINIAOD_gemsegm_match/250528_115540/0000/step3_NuGunE10_inMINIAODSIM_73.root\u000a
p321
aV/store/user/fnenna/NuGunE10_Phase2_PUstudies_gemsegm/140X_mcPhase2_14TeV_NuGun_MINIAOD_gemsegm_match/250528_115540/0000/step3_NuGunE10_inMINIAODSIM_955.root\u000a
p322
aV/store/user/fnenna/NuGunE10_Phase2_PUstudies_gemsegm/140X_mcPhase2_14TeV_NuGun_MINIAOD_gemsegm_match/250528_115540/0000/step3_NuGunE10_inMINIAODSIM_160.root\u000a
p323
aV/store/user/fnenna/NuGunE10_Phase2_PUstudies_gemsegm/140X_mcPhase2_14TeV_NuGun_MINIAOD_gemsegm_match/250528_115540/0000/step3_NuGunE10_inMINIAODSIM_478.root\u000a
p324
aV/store/user/fnenna/NuGunE10_Phase2_PUstudies_gemsegm/140X_mcPhase2_14TeV_NuGun_MINIAOD_gemsegm_match/250528_115540/0000/step3_NuGunE10_inMINIAODSIM_531.root\u000a
p325
aV/store/user/fnenna/NuGunE10_Phase2_PUstudies_gemsegm/140X_mcPhase2_14TeV_NuGun_MINIAOD_gemsegm_match/250528_115540/0000/step3_NuGunE10_inMINIAODSIM_311.root\u000a
p326
aV/store/user/fnenna/NuGunE10_Phase2_PUstudies_gemsegm/140X_mcPhase2_14TeV_NuGun_MINIAOD_gemsegm_match/250528_115540/0000/step3_NuGunE10_inMINIAODSIM_90.root\u000a
p327
aV/store/user/fnenna/NuGunE10_Phase2_PUstudies_gemsegm/140X_mcPhase2_14TeV_NuGun_MINIAOD_gemsegm_match/250528_115540/0000/step3_NuGunE10_inMINIAODSIM_561.root\u000a
p328
aV/store/user/fnenna/NuGunE10_Phase2_PUstudies_gemsegm/140X_mcPhase2_14TeV_NuGun_MINIAOD_gemsegm_match/250528_115540/0000/step3_NuGunE10_inMINIAODSIM_359.root\u000a
p329
aV/store/user/fnenna/NuGunE10_Phase2_PUstudies_gemsegm/140X_mcPhase2_14TeV_NuGun_MINIAOD_gemsegm_match/250528_115540/0000/step3_NuGunE10_inMINIAODSIM_174.root\u000a
p330
aV/store/user/fnenna/NuGunE10_Phase2_PUstudies_gemsegm/140X_mcPhase2_14TeV_NuGun_MINIAOD_gemsegm_match/250528_115540/0000/step3_NuGunE10_inMINIAODSIM_878.root\u000a
p331
aV/store/user/fnenna/NuGunE10_Phase2_PUstudies_gemsegm/140X_mcPhase2_14TeV_NuGun_MINIAOD_gemsegm_match/250528_115540/0000/step3_NuGunE10_inMINIAODSIM_51.root\u000a
p332
aV/store/user/fnenna/NuGunE10_Phase2_PUstudies_gemsegm/140X_mcPhase2_14TeV_NuGun_MINIAOD_gemsegm_match/250528_115540/0000/step3_NuGunE10_inMINIAODSIM_658.root\u000a
p333
aV/store/user/fnenna/NuGunE10_Phase2_PUstudies_gemsegm/140X_mcPhase2_14TeV_NuGun_MINIAOD_gemsegm_match/250528_115540/0000/step3_NuGunE10_inMINIAODSIM_769.root\u000a
p334
aV/store/user/fnenna/NuGunE10_Phase2_PUstudies_gemsegm/140X_mcPhase2_14TeV_NuGun_MINIAOD_gemsegm_match/250528_115540/0000/step3_NuGunE10_inMINIAODSIM_869.root\u000a
p335
aV/store/user/fnenna/NuGunE10_Phase2_PUstudies_gemsegm/140X_mcPhase2_14TeV_NuGun_MINIAOD_gemsegm_match/250528_115540/0000/step3_NuGunE10_inMINIAODSIM_234.root\u000a
p336
aV/store/user/fnenna/NuGunE10_Phase2_PUstudies_gemsegm/140X_mcPhase2_14TeV_NuGun_MINIAOD_gemsegm_match/250528_115540/0000/step3_NuGunE10_inMINIAODSIM_70.root\u000a
p337
aV/store/user/fnenna/NuGunE10_Phase2_PUstudies_gemsegm/140X_mcPhase2_14TeV_NuGun_MINIAOD_gemsegm_match/250528_115540/0000/step3_NuGunE10_inMINIAODSIM_545.root\u000a
p338
aV/store/user/fnenna/NuGunE10_Phase2_PUstudies_gemsegm/140X_mcPhase2_14TeV_NuGun_MINIAOD_gemsegm_match/250528_115540/0000/step3_NuGunE10_inMINIAODSIM_337.root\u000a
p339
aV/store/user/fnenna/NuGunE10_Phase2_PUstudies_gemsegm/140X_mcPhase2_14TeV_NuGun_MINIAOD_gemsegm_match/250528_115540/0000/step3_NuGunE10_inMINIAODSIM_49.root\u000a
p340
aV/store/user/fnenna/NuGunE10_Phase2_PUstudies_gemsegm/140X_mcPhase2_14TeV_NuGun_MINIAOD_gemsegm_match/250528_115540/0000/step3_NuGunE10_inMINIAODSIM_684.root\u000a
p341
aV/store/user/fnenna/NuGunE10_Phase2_PUstudies_gemsegm/140X_mcPhase2_14TeV_NuGun_MINIAOD_gemsegm_match/250528_115540/0000/step3_NuGunE10_inMINIAODSIM_135.root\u000a
p342
aV/store/user/fnenna/NuGunE10_Phase2_PUstudies_gemsegm/140X_mcPhase2_14TeV_NuGun_MINIAOD_gemsegm_match/250528_115540/0000/step3_NuGunE10_inMINIAODSIM_565.root\u000a
p343
aV/store/user/fnenna/NuGunE10_Phase2_PUstudies_gemsegm/140X_mcPhase2_14TeV_NuGun_MINIAOD_gemsegm_match/250528_115540/0000/step3_NuGunE10_inMINIAODSIM_287.root\u000a
p344
aV/store/user/fnenna/NuGunE10_Phase2_PUstudies_gemsegm/140X_mcPhase2_14TeV_NuGun_MINIAOD_gemsegm_match/250528_115540/0000/step3_NuGunE10_inMINIAODSIM_485.root\u000a
p345
aV/store/user/fnenna/NuGunE10_Phase2_PUstudies_gemsegm/140X_mcPhase2_14TeV_NuGun_MINIAOD_gemsegm_match/250528_115540/0000/step3_NuGunE10_inMINIAODSIM_581.root\u000a
p346
aV/store/user/fnenna/NuGunE10_Phase2_PUstudies_gemsegm/140X_mcPhase2_14TeV_NuGun_MINIAOD_gemsegm_match/250528_115540/0000/step3_NuGunE10_inMINIAODSIM_34.root\u000a
p347
aV/store/user/fnenna/NuGunE10_Phase2_PUstudies_gemsegm/140X_mcPhase2_14TeV_NuGun_MINIAOD_gemsegm_match/250528_115540/0000/step3_NuGunE10_inMINIAODSIM_851.root\u000a
p348
aV/store/user/fnenna/NuGunE10_Phase2_PUstudies_gemsegm/140X_mcPhase2_14TeV_NuGun_MINIAOD_gemsegm_match/250528_115540/0000/step3_NuGunE10_inMINIAODSIM_809.root\u000a
p349
aV/store/user/fnenna/NuGunE10_Phase2_PUstudies_gemsegm/140X_mcPhase2_14TeV_NuGun_MINIAOD_gemsegm_match/250528_115540/0000/step3_NuGunE10_inMINIAODSIM_951.root\u000a
p350
aV/store/user/fnenna/NuGunE10_Phase2_PUstudies_gemsegm/140X_mcPhase2_14TeV_NuGun_MINIAOD_gemsegm_match/250528_115540/0000/step3_NuGunE10_inMINIAODSIM_855.root\u000a
p351
aV/store/user/fnenna/NuGunE10_Phase2_PUstudies_gemsegm/140X_mcPhase2_14TeV_NuGun_MINIAOD_gemsegm_match/250528_115540/0000/step3_NuGunE10_inMINIAODSIM_127.root\u000a
p352
aV/store/user/fnenna/NuGunE10_Phase2_PUstudies_gemsegm/140X_mcPhase2_14TeV_NuGun_MINIAOD_gemsegm_match/250528_115540/0000/step3_NuGunE10_inMINIAODSIM_744.root\u000a
p353
aV/store/user/fnenna/NuGunE10_Phase2_PUstudies_gemsegm/140X_mcPhase2_14TeV_NuGun_MINIAOD_gemsegm_match/250528_115540/0000/step3_NuGunE10_inMINIAODSIM_358.root\u000a
p354
aV/store/user/fnenna/NuGunE10_Phase2_PUstudies_gemsegm/140X_mcPhase2_14TeV_NuGun_MINIAOD_gemsegm_match/250528_115540/0000/step3_NuGunE10_inMINIAODSIM_431.root\u000a
p355
aV/store/user/fnenna/NuGunE10_Phase2_PUstudies_gemsegm/140X_mcPhase2_14TeV_NuGun_MINIAOD_gemsegm_match/250528_115540/0000/step3_NuGunE10_inMINIAODSIM_642.root\u000a
p356
aV/store/user/fnenna/NuGunE10_Phase2_PUstudies_gemsegm/140X_mcPhase2_14TeV_NuGun_MINIAOD_gemsegm_match/250528_115540/0000/step3_NuGunE10_inMINIAODSIM_865.root\u000a
p357
aV/store/user/fnenna/NuGunE10_Phase2_PUstudies_gemsegm/140X_mcPhase2_14TeV_NuGun_MINIAOD_gemsegm_match/250528_115540/0000/step3_NuGunE10_inMINIAODSIM_271.root\u000a
p358
aV/store/user/fnenna/NuGunE10_Phase2_PUstudies_gemsegm/140X_mcPhase2_14TeV_NuGun_MINIAOD_gemsegm_match/250528_115540/0000/step3_NuGunE10_inMINIAODSIM_473.root\u000a
p359
aV/store/user/fnenna/NuGunE10_Phase2_PUstudies_gemsegm/140X_mcPhase2_14TeV_NuGun_MINIAOD_gemsegm_match/250528_115540/0000/step3_NuGunE10_inMINIAODSIM_459.root\u000a
p360
aV/store/user/fnenna/NuGunE10_Phase2_PUstudies_gemsegm/140X_mcPhase2_14TeV_NuGun_MINIAOD_gemsegm_match/250528_115540/0000/step3_NuGunE10_inMINIAODSIM_268.root\u000a
p361
aV/store/user/fnenna/NuGunE10_Phase2_PUstudies_gemsegm/140X_mcPhase2_14TeV_NuGun_MINIAOD_gemsegm_match/250528_115540/0000/step3_NuGunE10_inMINIAODSIM_355.root\u000a
p362
aV/store/user/fnenna/NuGunE10_Phase2_PUstudies_gemsegm/140X_mcPhase2_14TeV_NuGun_MINIAOD_gemsegm_match/250528_115540/0000/step3_NuGunE10_inMINIAODSIM_464.root\u000a
p363
aV/store/user/fnenna/NuGunE10_Phase2_PUstudies_gemsegm/140X_mcPhase2_14TeV_NuGun_MINIAOD_gemsegm_match/250528_115540/0000/step3_NuGunE10_inMINIAODSIM_818.root\u000a
p364
aV/store/user/fnenna/NuGunE10_Phase2_PUstudies_gemsegm/140X_mcPhase2_14TeV_NuGun_MINIAOD_gemsegm_match/250528_115540/0000/step3_NuGunE10_inMINIAODSIM_530.root\u000a
p365
aV/store/user/fnenna/NuGunE10_Phase2_PUstudies_gemsegm/140X_mcPhase2_14TeV_NuGun_MINIAOD_gemsegm_match/250528_115540/0000/step3_NuGunE10_inMINIAODSIM_298.root\u000a
p366
aV/store/user/fnenna/NuGunE10_Phase2_PUstudies_gemsegm/140X_mcPhase2_14TeV_NuGun_MINIAOD_gemsegm_match/250528_115540/0000/step3_NuGunE10_inMINIAODSIM_157.root\u000a
p367
aV/store/user/fnenna/NuGunE10_Phase2_PUstudies_gemsegm/140X_mcPhase2_14TeV_NuGun_MINIAOD_gemsegm_match/250528_115540/0000/step3_NuGunE10_inMINIAODSIM_854.root\u000a
p368
aV/store/user/fnenna/NuGunE10_Phase2_PUstudies_gemsegm/140X_mcPhase2_14TeV_NuGun_MINIAOD_gemsegm_match/250528_115540/0000/step3_NuGunE10_inMINIAODSIM_145.root\u000a
p369
aV/store/user/fnenna/NuGunE10_Phase2_PUstudies_gemsegm/140X_mcPhase2_14TeV_NuGun_MINIAOD_gemsegm_match/250528_115540/0000/step3_NuGunE10_inMINIAODSIM_251.root\u000a
p370
aV/store/user/fnenna/NuGunE10_Phase2_PUstudies_gemsegm/140X_mcPhase2_14TeV_NuGun_MINIAOD_gemsegm_match/250528_115540/0000/step3_NuGunE10_inMINIAODSIM_944.root\u000a
p371
aV/store/user/fnenna/NuGunE10_Phase2_PUstudies_gemsegm/140X_mcPhase2_14TeV_NuGun_MINIAOD_gemsegm_match/250528_115540/0000/step3_NuGunE10_inMINIAODSIM_204.root\u000a
p372
aV/store/user/fnenna/NuGunE10_Phase2_PUstudies_gemsegm/140X_mcPhase2_14TeV_NuGun_MINIAOD_gemsegm_match/250528_115540/0000/step3_NuGunE10_inMINIAODSIM_866.root\u000a
p373
aV/store/user/fnenna/NuGunE10_Phase2_PUstudies_gemsegm/140X_mcPhase2_14TeV_NuGun_MINIAOD_gemsegm_match/250528_115540/0000/step3_NuGunE10_inMINIAODSIM_626.root\u000a
p374
aV/store/user/fnenna/NuGunE10_Phase2_PUstudies_gemsegm/140X_mcPhase2_14TeV_NuGun_MINIAOD_gemsegm_match/250528_115540/0000/step3_NuGunE10_inMINIAODSIM_811.root\u000a
p375
aV/store/user/fnenna/NuGunE10_Phase2_PUstudies_gemsegm/140X_mcPhase2_14TeV_NuGun_MINIAOD_gemsegm_match/250528_115540/0000/step3_NuGunE10_inMINIAODSIM_513.root\u000a
p376
aV/store/user/fnenna/NuGunE10_Phase2_PUstudies_gemsegm/140X_mcPhase2_14TeV_NuGun_MINIAOD_gemsegm_match/250528_115540/0000/step3_NuGunE10_inMINIAODSIM_506.root\u000a
p377
aV/store/user/fnenna/NuGunE10_Phase2_PUstudies_gemsegm/140X_mcPhase2_14TeV_NuGun_MINIAOD_gemsegm_match/250528_115540/0000/step3_NuGunE10_inMINIAODSIM_361.root\u000a
p378
aV/store/user/fnenna/NuGunE10_Phase2_PUstudies_gemsegm/140X_mcPhase2_14TeV_NuGun_MINIAOD_gemsegm_match/250528_115540/0000/step3_NuGunE10_inMINIAODSIM_408.root\u000a
p379
aV/store/user/fnenna/NuGunE10_Phase2_PUstudies_gemsegm/140X_mcPhase2_14TeV_NuGun_MINIAOD_gemsegm_match/250528_115540/0000/step3_NuGunE10_inMINIAODSIM_881.root\u000a
p380
aV/store/user/fnenna/NuGunE10_Phase2_PUstudies_gemsegm/140X_mcPhase2_14TeV_NuGun_MINIAOD_gemsegm_match/250528_115540/0000/step3_NuGunE10_inMINIAODSIM_843.root\u000a
p381
aV/store/user/fnenna/NuGunE10_Phase2_PUstudies_gemsegm/140X_mcPhase2_14TeV_NuGun_MINIAOD_gemsegm_match/250528_115540/0000/step3_NuGunE10_inMINIAODSIM_322.root\u000a
p382
aV/store/user/fnenna/NuGunE10_Phase2_PUstudies_gemsegm/140X_mcPhase2_14TeV_NuGun_MINIAOD_gemsegm_match/250528_115540/0000/step3_NuGunE10_inMINIAODSIM_93.root\u000a
p383
aV/store/user/fnenna/NuGunE10_Phase2_PUstudies_gemsegm/140X_mcPhase2_14TeV_NuGun_MINIAOD_gemsegm_match/250528_115540/0000/step3_NuGunE10_inMINIAODSIM_205.root\u000a
p384
aV/store/user/fnenna/NuGunE10_Phase2_PUstudies_gemsegm/140X_mcPhase2_14TeV_NuGun_MINIAOD_gemsegm_match/250528_115540/0000/step3_NuGunE10_inMINIAODSIM_325.root\u000a
p385
aV/store/user/fnenna/NuGunE10_Phase2_PUstudies_gemsegm/140X_mcPhase2_14TeV_NuGun_MINIAOD_gemsegm_match/250528_115540/0000/step3_NuGunE10_inMINIAODSIM_75.root\u000a
p386
aV/store/user/fnenna/NuGunE10_Phase2_PUstudies_gemsegm/140X_mcPhase2_14TeV_NuGun_MINIAOD_gemsegm_match/250528_115540/0000/step3_NuGunE10_inMINIAODSIM_199.root\u000a
p387
aV/store/user/fnenna/NuGunE10_Phase2_PUstudies_gemsegm/140X_mcPhase2_14TeV_NuGun_MINIAOD_gemsegm_match/250528_115540/0000/step3_NuGunE10_inMINIAODSIM_258.root\u000a
p388
aV/store/user/fnenna/NuGunE10_Phase2_PUstudies_gemsegm/140X_mcPhase2_14TeV_NuGun_MINIAOD_gemsegm_match/250528_115540/0000/step3_NuGunE10_inMINIAODSIM_4.root\u000a
p389
aV/store/user/fnenna/NuGunE10_Phase2_PUstudies_gemsegm/140X_mcPhase2_14TeV_NuGun_MINIAOD_gemsegm_match/250528_115540/0000/step3_NuGunE10_inMINIAODSIM_759.root\u000a
p390
aV/store/user/fnenna/NuGunE10_Phase2_PUstudies_gemsegm/140X_mcPhase2_14TeV_NuGun_MINIAOD_gemsegm_match/250528_115540/0000/step3_NuGunE10_inMINIAODSIM_504.root\u000a
p391
aV/store/user/fnenna/NuGunE10_Phase2_PUstudies_gemsegm/140X_mcPhase2_14TeV_NuGun_MINIAOD_gemsegm_match/250528_115540/0000/step3_NuGunE10_inMINIAODSIM_284.root\u000a
p392
aV/store/user/fnenna/NuGunE10_Phase2_PUstudies_gemsegm/140X_mcPhase2_14TeV_NuGun_MINIAOD_gemsegm_match/250528_115540/0000/step3_NuGunE10_inMINIAODSIM_467.root\u000a
p393
aV/store/user/fnenna/NuGunE10_Phase2_PUstudies_gemsegm/140X_mcPhase2_14TeV_NuGun_MINIAOD_gemsegm_match/250528_115540/0000/step3_NuGunE10_inMINIAODSIM_857.root\u000a
p394
aV/store/user/fnenna/NuGunE10_Phase2_PUstudies_gemsegm/140X_mcPhase2_14TeV_NuGun_MINIAOD_gemsegm_match/250528_115540/0000/step3_NuGunE10_inMINIAODSIM_265.root\u000a
p395
aV/store/user/fnenna/NuGunE10_Phase2_PUstudies_gemsegm/140X_mcPhase2_14TeV_NuGun_MINIAOD_gemsegm_match/250528_115540/0000/step3_NuGunE10_inMINIAODSIM_395.root\u000a
p396
aV/store/user/fnenna/NuGunE10_Phase2_PUstudies_gemsegm/140X_mcPhase2_14TeV_NuGun_MINIAOD_gemsegm_match/250528_115540/0000/step3_NuGunE10_inMINIAODSIM_681.root\u000a
p397
aV/store/user/fnenna/NuGunE10_Phase2_PUstudies_gemsegm/140X_mcPhase2_14TeV_NuGun_MINIAOD_gemsegm_match/250528_115540/0000/step3_NuGunE10_inMINIAODSIM_331.root\u000a
p398
aV/store/user/fnenna/NuGunE10_Phase2_PUstudies_gemsegm/140X_mcPhase2_14TeV_NuGun_MINIAOD_gemsegm_match/250528_115540/0000/step3_NuGunE10_inMINIAODSIM_247.root\u000a
p399
aV/store/user/fnenna/NuGunE10_Phase2_PUstudies_gemsegm/140X_mcPhase2_14TeV_NuGun_MINIAOD_gemsegm_match/250528_115540/0000/step3_NuGunE10_inMINIAODSIM_476.root\u000a
p400
aV/store/user/fnenna/NuGunE10_Phase2_PUstudies_gemsegm/140X_mcPhase2_14TeV_NuGun_MINIAOD_gemsegm_match/250528_115540/0000/step3_NuGunE10_inMINIAODSIM_60.root\u000a
p401
aV/store/user/fnenna/NuGunE10_Phase2_PUstudies_gemsegm/140X_mcPhase2_14TeV_NuGun_MINIAOD_gemsegm_match/250528_115540/0000/step3_NuGunE10_inMINIAODSIM_378.root\u000a
p402
aV/store/user/fnenna/NuGunE10_Phase2_PUstudies_gemsegm/140X_mcPhase2_14TeV_NuGun_MINIAOD_gemsegm_match/250528_115540/0000/step3_NuGunE10_inMINIAODSIM_87.root\u000a
p403
aV/store/user/fnenna/NuGunE10_Phase2_PUstudies_gemsegm/140X_mcPhase2_14TeV_NuGun_MINIAOD_gemsegm_match/250528_115540/0000/step3_NuGunE10_inMINIAODSIM_301.root\u000a
p404
aV/store/user/fnenna/NuGunE10_Phase2_PUstudies_gemsegm/140X_mcPhase2_14TeV_NuGun_MINIAOD_gemsegm_match/250528_115540/0000/step3_NuGunE10_inMINIAODSIM_742.root\u000a
p405
aV/store/user/fnenna/NuGunE10_Phase2_PUstudies_gemsegm/140X_mcPhase2_14TeV_NuGun_MINIAOD_gemsegm_match/250528_115540/0000/step3_NuGunE10_inMINIAODSIM_839.root\u000a
p406
aV/store/user/fnenna/NuGunE10_Phase2_PUstudies_gemsegm/140X_mcPhase2_14TeV_NuGun_MINIAOD_gemsegm_match/250528_115540/0000/step3_NuGunE10_inMINIAODSIM_180.root\u000a
p407
aV/store/user/fnenna/NuGunE10_Phase2_PUstudies_gemsegm/140X_mcPhase2_14TeV_NuGun_MINIAOD_gemsegm_match/250528_115540/0000/step3_NuGunE10_inMINIAODSIM_240.root\u000a
p408
aV/store/user/fnenna/NuGunE10_Phase2_PUstudies_gemsegm/140X_mcPhase2_14TeV_NuGun_MINIAOD_gemsegm_match/250528_115540/0000/step3_NuGunE10_inMINIAODSIM_880.root\u000a
p409
aV/store/user/fnenna/NuGunE10_Phase2_PUstudies_gemsegm/140X_mcPhase2_14TeV_NuGun_MINIAOD_gemsegm_match/250528_115540/0000/step3_NuGunE10_inMINIAODSIM_812.root\u000a
p410
aV/store/user/fnenna/NuGunE10_Phase2_PUstudies_gemsegm/140X_mcPhase2_14TeV_NuGun_MINIAOD_gemsegm_match/250528_115540/0000/step3_NuGunE10_inMINIAODSIM_925.root\u000a
p411
aV/store/user/fnenna/NuGunE10_Phase2_PUstudies_gemsegm/140X_mcPhase2_14TeV_NuGun_MINIAOD_gemsegm_match/250528_115540/0000/step3_NuGunE10_inMINIAODSIM_307.root\u000a
p412
aV/store/user/fnenna/NuGunE10_Phase2_PUstudies_gemsegm/140X_mcPhase2_14TeV_NuGun_MINIAOD_gemsegm_match/250528_115540/0000/step3_NuGunE10_inMINIAODSIM_203.root\u000a
p413
aV/store/user/fnenna/NuGunE10_Phase2_PUstudies_gemsegm/140X_mcPhase2_14TeV_NuGun_MINIAOD_gemsegm_match/250528_115540/0000/step3_NuGunE10_inMINIAODSIM_130.root\u000a
p414
aV/store/user/fnenna/NuGunE10_Phase2_PUstudies_gemsegm/140X_mcPhase2_14TeV_NuGun_MINIAOD_gemsegm_match/250528_115540/0000/step3_NuGunE10_inMINIAODSIM_821.root\u000a
p415
aV/store/user/fnenna/NuGunE10_Phase2_PUstudies_gemsegm/140X_mcPhase2_14TeV_NuGun_MINIAOD_gemsegm_match/250528_115540/0000/step3_NuGunE10_inMINIAODSIM_25.root\u000a
p416
aV/store/user/fnenna/NuGunE10_Phase2_PUstudies_gemsegm/140X_mcPhase2_14TeV_NuGun_MINIAOD_gemsegm_match/250528_115540/0000/step3_NuGunE10_inMINIAODSIM_239.root\u000a
p417
aV/store/user/fnenna/NuGunE10_Phase2_PUstudies_gemsegm/140X_mcPhase2_14TeV_NuGun_MINIAOD_gemsegm_match/250528_115540/0000/step3_NuGunE10_inMINIAODSIM_617.root\u000a
p418
aV/store/user/fnenna/NuGunE10_Phase2_PUstudies_gemsegm/140X_mcPhase2_14TeV_NuGun_MINIAOD_gemsegm_match/250528_115540/0000/step3_NuGunE10_inMINIAODSIM_245.root\u000a
p419
aV/store/user/fnenna/NuGunE10_Phase2_PUstudies_gemsegm/140X_mcPhase2_14TeV_NuGun_MINIAOD_gemsegm_match/250528_115540/0000/step3_NuGunE10_inMINIAODSIM_196.root\u000a
p420
aV/store/user/fnenna/NuGunE10_Phase2_PUstudies_gemsegm/140X_mcPhase2_14TeV_NuGun_MINIAOD_gemsegm_match/250528_115540/0000/step3_NuGunE10_inMINIAODSIM_397.root\u000a
p421
aV/store/user/fnenna/NuGunE10_Phase2_PUstudies_gemsegm/140X_mcPhase2_14TeV_NuGun_MINIAOD_gemsegm_match/250528_115540/0000/step3_NuGunE10_inMINIAODSIM_278.root\u000a
p422
aV/store/user/fnenna/NuGunE10_Phase2_PUstudies_gemsegm/140X_mcPhase2_14TeV_NuGun_MINIAOD_gemsegm_match/250528_115540/0000/step3_NuGunE10_inMINIAODSIM_305.root\u000a
p423
aV/store/user/fnenna/NuGunE10_Phase2_PUstudies_gemsegm/140X_mcPhase2_14TeV_NuGun_MINIAOD_gemsegm_match/250528_115540/0000/step3_NuGunE10_inMINIAODSIM_714.root\u000a
p424
aV/store/user/fnenna/NuGunE10_Phase2_PUstudies_gemsegm/140X_mcPhase2_14TeV_NuGun_MINIAOD_gemsegm_match/250528_115540/0000/step3_NuGunE10_inMINIAODSIM_507.root\u000a
p425
aV/store/user/fnenna/NuGunE10_Phase2_PUstudies_gemsegm/140X_mcPhase2_14TeV_NuGun_MINIAOD_gemsegm_match/250528_115540/0000/step3_NuGunE10_inMINIAODSIM_377.root\u000a
p426
aV/store/user/fnenna/NuGunE10_Phase2_PUstudies_gemsegm/140X_mcPhase2_14TeV_NuGun_MINIAOD_gemsegm_match/250528_115540/0000/step3_NuGunE10_inMINIAODSIM_118.root\u000a
p427
aV/store/user/fnenna/NuGunE10_Phase2_PUstudies_gemsegm/140X_mcPhase2_14TeV_NuGun_MINIAOD_gemsegm_match/250528_115540/0000/step3_NuGunE10_inMINIAODSIM_184.root\u000a
p428
aV/store/user/fnenna/NuGunE10_Phase2_PUstudies_gemsegm/140X_mcPhase2_14TeV_NuGun_MINIAOD_gemsegm_match/250528_115540/0000/step3_NuGunE10_inMINIAODSIM_754.root\u000a
p429
aV/store/user/fnenna/NuGunE10_Phase2_PUstudies_gemsegm/140X_mcPhase2_14TeV_NuGun_MINIAOD_gemsegm_match/250528_115540/0000/step3_NuGunE10_inMINIAODSIM_559.root\u000a
p430
aV/store/user/fnenna/NuGunE10_Phase2_PUstudies_gemsegm/140X_mcPhase2_14TeV_NuGun_MINIAOD_gemsegm_match/250528_115540/0000/step3_NuGunE10_inMINIAODSIM_463.root\u000a
p431
aV/store/user/fnenna/NuGunE10_Phase2_PUstudies_gemsegm/140X_mcPhase2_14TeV_NuGun_MINIAOD_gemsegm_match/250528_115540/0000/step3_NuGunE10_inMINIAODSIM_100.root\u000a
p432
aV/store/user/fnenna/NuGunE10_Phase2_PUstudies_gemsegm/140X_mcPhase2_14TeV_NuGun_MINIAOD_gemsegm_match/250528_115540/0000/step3_NuGunE10_inMINIAODSIM_214.root\u000a
p433
aV/store/user/fnenna/NuGunE10_Phase2_PUstudies_gemsegm/140X_mcPhase2_14TeV_NuGun_MINIAOD_gemsegm_match/250528_115540/0000/step3_NuGunE10_inMINIAODSIM_249.root\u000a
p434
aV/store/user/fnenna/NuGunE10_Phase2_PUstudies_gemsegm/140X_mcPhase2_14TeV_NuGun_MINIAOD_gemsegm_match/250528_115540/0000/step3_NuGunE10_inMINIAODSIM_863.root\u000a
p435
aV/store/user/fnenna/NuGunE10_Phase2_PUstudies_gemsegm/140X_mcPhase2_14TeV_NuGun_MINIAOD_gemsegm_match/250528_115540/0000/step3_NuGunE10_inMINIAODSIM_727.root\u000a
p436
aV/store/user/fnenna/NuGunE10_Phase2_PUstudies_gemsegm/140X_mcPhase2_14TeV_NuGun_MINIAOD_gemsegm_match/250528_115540/0000/step3_NuGunE10_inMINIAODSIM_477.root\u000a
p437
aV/store/user/fnenna/NuGunE10_Phase2_PUstudies_gemsegm/140X_mcPhase2_14TeV_NuGun_MINIAOD_gemsegm_match/250528_115540/0000/step3_NuGunE10_inMINIAODSIM_148.root\u000a
p438
aV/store/user/fnenna/NuGunE10_Phase2_PUstudies_gemsegm/140X_mcPhase2_14TeV_NuGun_MINIAOD_gemsegm_match/250528_115540/0000/step3_NuGunE10_inMINIAODSIM_108.root\u000a
p439
aV/store/user/fnenna/NuGunE10_Phase2_PUstudies_gemsegm/140X_mcPhase2_14TeV_NuGun_MINIAOD_gemsegm_match/250528_115540/0000/step3_NuGunE10_inMINIAODSIM_918.root\u000a
p440
aV/store/user/fnenna/NuGunE10_Phase2_PUstudies_gemsegm/140X_mcPhase2_14TeV_NuGun_MINIAOD_gemsegm_match/250528_115540/0000/step3_NuGunE10_inMINIAODSIM_691.root\u000a
p441
aV/store/user/fnenna/NuGunE10_Phase2_PUstudies_gemsegm/140X_mcPhase2_14TeV_NuGun_MINIAOD_gemsegm_match/250528_115540/0000/step3_NuGunE10_inMINIAODSIM_847.root\u000a
p442
aV/store/user/fnenna/NuGunE10_Phase2_PUstudies_gemsegm/140X_mcPhase2_14TeV_NuGun_MINIAOD_gemsegm_match/250528_115540/0000/step3_NuGunE10_inMINIAODSIM_19.root\u000a
p443
aV/store/user/fnenna/NuGunE10_Phase2_PUstudies_gemsegm/140X_mcPhase2_14TeV_NuGun_MINIAOD_gemsegm_match/250528_115540/0000/step3_NuGunE10_inMINIAODSIM_987.root\u000a
p444
aV/store/user/fnenna/NuGunE10_Phase2_PUstudies_gemsegm/140X_mcPhase2_14TeV_NuGun_MINIAOD_gemsegm_match/250528_115540/0000/step3_NuGunE10_inMINIAODSIM_647.root\u000a
p445
aV/store/user/fnenna/NuGunE10_Phase2_PUstudies_gemsegm/140X_mcPhase2_14TeV_NuGun_MINIAOD_gemsegm_match/250528_115540/0000/step3_NuGunE10_inMINIAODSIM_900.root\u000a
p446
aV/store/user/fnenna/NuGunE10_Phase2_PUstudies_gemsegm/140X_mcPhase2_14TeV_NuGun_MINIAOD_gemsegm_match/250528_115540/0000/step3_NuGunE10_inMINIAODSIM_974.root\u000a
p447
aV/store/user/fnenna/NuGunE10_Phase2_PUstudies_gemsegm/140X_mcPhase2_14TeV_NuGun_MINIAOD_gemsegm_match/250528_115540/0000/step3_NuGunE10_inMINIAODSIM_570.root\u000a
p448
aV/store/user/fnenna/NuGunE10_Phase2_PUstudies_gemsegm/140X_mcPhase2_14TeV_NuGun_MINIAOD_gemsegm_match/250528_115540/0000/step3_NuGunE10_inMINIAODSIM_363.root\u000a
p449
aV/store/user/fnenna/NuGunE10_Phase2_PUstudies_gemsegm/140X_mcPhase2_14TeV_NuGun_MINIAOD_gemsegm_match/250528_115540/0000/step3_NuGunE10_inMINIAODSIM_696.root\u000a
p450
aV/store/user/fnenna/NuGunE10_Phase2_PUstudies_gemsegm/140X_mcPhase2_14TeV_NuGun_MINIAOD_gemsegm_match/250528_115540/0000/step3_NuGunE10_inMINIAODSIM_874.root\u000a
p451
aV/store/user/fnenna/NuGunE10_Phase2_PUstudies_gemsegm/140X_mcPhase2_14TeV_NuGun_MINIAOD_gemsegm_match/250528_115540/0000/step3_NuGunE10_inMINIAODSIM_286.root\u000a
p452
aV/store/user/fnenna/NuGunE10_Phase2_PUstudies_gemsegm/140X_mcPhase2_14TeV_NuGun_MINIAOD_gemsegm_match/250528_115540/0000/step3_NuGunE10_inMINIAODSIM_354.root\u000a
p453
aV/store/user/fnenna/NuGunE10_Phase2_PUstudies_gemsegm/140X_mcPhase2_14TeV_NuGun_MINIAOD_gemsegm_match/250528_115540/0000/step3_NuGunE10_inMINIAODSIM_80.root\u000a
p454
aV/store/user/fnenna/NuGunE10_Phase2_PUstudies_gemsegm/140X_mcPhase2_14TeV_NuGun_MINIAOD_gemsegm_match/250528_115540/0000/step3_NuGunE10_inMINIAODSIM_540.root\u000a
p455
aV/store/user/fnenna/NuGunE10_Phase2_PUstudies_gemsegm/140X_mcPhase2_14TeV_NuGun_MINIAOD_gemsegm_match/250528_115540/0000/step3_NuGunE10_inMINIAODSIM_92.root\u000a
p456
aV/store/user/fnenna/NuGunE10_Phase2_PUstudies_gemsegm/140X_mcPhase2_14TeV_NuGun_MINIAOD_gemsegm_match/250528_115540/0000/step3_NuGunE10_inMINIAODSIM_528.root\u000a
p457
aV/store/user/fnenna/NuGunE10_Phase2_PUstudies_gemsegm/140X_mcPhase2_14TeV_NuGun_MINIAOD_gemsegm_match/250528_115540/0000/step3_NuGunE10_inMINIAODSIM_173.root\u000a
p458
aV/store/user/fnenna/NuGunE10_Phase2_PUstudies_gemsegm/140X_mcPhase2_14TeV_NuGun_MINIAOD_gemsegm_match/250528_115540/0000/step3_NuGunE10_inMINIAODSIM_291.root\u000a
p459
aV/store/user/fnenna/NuGunE10_Phase2_PUstudies_gemsegm/140X_mcPhase2_14TeV_NuGun_MINIAOD_gemsegm_match/250528_115540/0000/step3_NuGunE10_inMINIAODSIM_756.root\u000a
p460
aV/store/user/fnenna/NuGunE10_Phase2_PUstudies_gemsegm/140X_mcPhase2_14TeV_NuGun_MINIAOD_gemsegm_match/250528_115540/0000/step3_NuGunE10_inMINIAODSIM_910.root\u000a
p461
aV/store/user/fnenna/NuGunE10_Phase2_PUstudies_gemsegm/140X_mcPhase2_14TeV_NuGun_MINIAOD_gemsegm_match/250528_115540/0000/step3_NuGunE10_inMINIAODSIM_432.root\u000a
p462
aV/store/user/fnenna/NuGunE10_Phase2_PUstudies_gemsegm/140X_mcPhase2_14TeV_NuGun_MINIAOD_gemsegm_match/250528_115540/0000/step3_NuGunE10_inMINIAODSIM_220.root\u000a
p463
aV/store/user/fnenna/NuGunE10_Phase2_PUstudies_gemsegm/140X_mcPhase2_14TeV_NuGun_MINIAOD_gemsegm_match/250528_115540/0000/step3_NuGunE10_inMINIAODSIM_238.root\u000a
p464
aV/store/user/fnenna/NuGunE10_Phase2_PUstudies_gemsegm/140X_mcPhase2_14TeV_NuGun_MINIAOD_gemsegm_match/250528_115540/0000/step3_NuGunE10_inMINIAODSIM_147.root\u000a
p465
aV/store/user/fnenna/NuGunE10_Phase2_PUstudies_gemsegm/140X_mcPhase2_14TeV_NuGun_MINIAOD_gemsegm_match/250528_115540/0000/step3_NuGunE10_inMINIAODSIM_166.root\u000a
p466
aV/store/user/fnenna/NuGunE10_Phase2_PUstudies_gemsegm/140X_mcPhase2_14TeV_NuGun_MINIAOD_gemsegm_match/250528_115540/0000/step3_NuGunE10_inMINIAODSIM_840.root\u000a
p467
aV/store/user/fnenna/NuGunE10_Phase2_PUstudies_gemsegm/140X_mcPhase2_14TeV_NuGun_MINIAOD_gemsegm_match/250528_115540/0000/step3_NuGunE10_inMINIAODSIM_362.root\u000a
p468
aV/store/user/fnenna/NuGunE10_Phase2_PUstudies_gemsegm/140X_mcPhase2_14TeV_NuGun_MINIAOD_gemsegm_match/250528_115540/0000/step3_NuGunE10_inMINIAODSIM_219.root\u000a
p469
aV/store/user/fnenna/NuGunE10_Phase2_PUstudies_gemsegm/140X_mcPhase2_14TeV_NuGun_MINIAOD_gemsegm_match/250528_115540/0000/step3_NuGunE10_inMINIAODSIM_120.root\u000a
p470
aV/store/user/fnenna/NuGunE10_Phase2_PUstudies_gemsegm/140X_mcPhase2_14TeV_NuGun_MINIAOD_gemsegm_match/250528_115540/0000/step3_NuGunE10_inMINIAODSIM_172.root\u000a
p471
aV/store/user/fnenna/NuGunE10_Phase2_PUstudies_gemsegm/140X_mcPhase2_14TeV_NuGun_MINIAOD_gemsegm_match/250528_115540/0000/step3_NuGunE10_inMINIAODSIM_962.root\u000a
p472
aV/store/user/fnenna/NuGunE10_Phase2_PUstudies_gemsegm/140X_mcPhase2_14TeV_NuGun_MINIAOD_gemsegm_match/250528_115540/0000/step3_NuGunE10_inMINIAODSIM_767.root\u000a
p473
aV/store/user/fnenna/NuGunE10_Phase2_PUstudies_gemsegm/140X_mcPhase2_14TeV_NuGun_MINIAOD_gemsegm_match/250528_115540/0000/step3_NuGunE10_inMINIAODSIM_780.root\u000a
p474
aV/store/user/fnenna/NuGunE10_Phase2_PUstudies_gemsegm/140X_mcPhase2_14TeV_NuGun_MINIAOD_gemsegm_match/250528_115540/0000/step3_NuGunE10_inMINIAODSIM_215.root\u000a
p475
aV/store/user/fnenna/NuGunE10_Phase2_PUstudies_gemsegm/140X_mcPhase2_14TeV_NuGun_MINIAOD_gemsegm_match/250528_115540/0000/step3_NuGunE10_inMINIAODSIM_183.root\u000a
p476
aV/store/user/fnenna/NuGunE10_Phase2_PUstudies_gemsegm/140X_mcPhase2_14TeV_NuGun_MINIAOD_gemsegm_match/250528_115540/0000/step3_NuGunE10_inMINIAODSIM_188.root\u000a
p477
aV/store/user/fnenna/NuGunE10_Phase2_PUstudies_gemsegm/140X_mcPhase2_14TeV_NuGun_MINIAOD_gemsegm_match/250528_115540/0000/step3_NuGunE10_inMINIAODSIM_902.root\u000a
p478
aV/store/user/fnenna/NuGunE10_Phase2_PUstudies_gemsegm/140X_mcPhase2_14TeV_NuGun_MINIAOD_gemsegm_match/250528_115540/0000/step3_NuGunE10_inMINIAODSIM_368.root\u000a
p479
aV/store/user/fnenna/NuGunE10_Phase2_PUstudies_gemsegm/140X_mcPhase2_14TeV_NuGun_MINIAOD_gemsegm_match/250528_115540/0000/step3_NuGunE10_inMINIAODSIM_615.root\u000a
p480
aV/store/user/fnenna/NuGunE10_Phase2_PUstudies_gemsegm/140X_mcPhase2_14TeV_NuGun_MINIAOD_gemsegm_match/250528_115540/0000/step3_NuGunE10_inMINIAODSIM_28.root\u000a
p481
aV/store/user/fnenna/NuGunE10_Phase2_PUstudies_gemsegm/140X_mcPhase2_14TeV_NuGun_MINIAOD_gemsegm_match/250528_115540/0000/step3_NuGunE10_inMINIAODSIM_309.root\u000a
p482
aV/store/user/fnenna/NuGunE10_Phase2_PUstudies_gemsegm/140X_mcPhase2_14TeV_NuGun_MINIAOD_gemsegm_match/250528_115540/0000/step3_NuGunE10_inMINIAODSIM_549.root\u000a
p483
aV/store/user/fnenna/NuGunE10_Phase2_PUstudies_gemsegm/140X_mcPhase2_14TeV_NuGun_MINIAOD_gemsegm_match/250528_115540/0000/step3_NuGunE10_inMINIAODSIM_879.root\u000a
p484
aV/store/user/fnenna/NuGunE10_Phase2_PUstudies_gemsegm/140X_mcPhase2_14TeV_NuGun_MINIAOD_gemsegm_match/250528_115540/0000/step3_NuGunE10_inMINIAODSIM_71.root\u000a
p485
aV/store/user/fnenna/NuGunE10_Phase2_PUstudies_gemsegm/140X_mcPhase2_14TeV_NuGun_MINIAOD_gemsegm_match/250528_115540/0000/step3_NuGunE10_inMINIAODSIM_56.root\u000a
p486
aV/store/user/fnenna/NuGunE10_Phase2_PUstudies_gemsegm/140X_mcPhase2_14TeV_NuGun_MINIAOD_gemsegm_match/250528_115540/0000/step3_NuGunE10_inMINIAODSIM_389.root\u000a
p487
aV/store/user/fnenna/NuGunE10_Phase2_PUstudies_gemsegm/140X_mcPhase2_14TeV_NuGun_MINIAOD_gemsegm_match/250528_115540/0000/step3_NuGunE10_inMINIAODSIM_462.root\u000a
p488
aV/store/user/fnenna/NuGunE10_Phase2_PUstudies_gemsegm/140X_mcPhase2_14TeV_NuGun_MINIAOD_gemsegm_match/250528_115540/0000/step3_NuGunE10_inMINIAODSIM_640.root\u000a
p489
aV/store/user/fnenna/NuGunE10_Phase2_PUstudies_gemsegm/140X_mcPhase2_14TeV_NuGun_MINIAOD_gemsegm_match/250528_115540/0000/step3_NuGunE10_inMINIAODSIM_435.root\u000a
p490
aV/store/user/fnenna/NuGunE10_Phase2_PUstudies_gemsegm/140X_mcPhase2_14TeV_NuGun_MINIAOD_gemsegm_match/250528_115540/0000/step3_NuGunE10_inMINIAODSIM_97.root\u000a
p491
aV/store/user/fnenna/NuGunE10_Phase2_PUstudies_gemsegm/140X_mcPhase2_14TeV_NuGun_MINIAOD_gemsegm_match/250528_115540/0000/step3_NuGunE10_inMINIAODSIM_784.root\u000a
p492
aV/store/user/fnenna/NuGunE10_Phase2_PUstudies_gemsegm/140X_mcPhase2_14TeV_NuGun_MINIAOD_gemsegm_match/250528_115540/0000/step3_NuGunE10_inMINIAODSIM_466.root\u000a
p493
aV/store/user/fnenna/NuGunE10_Phase2_PUstudies_gemsegm/140X_mcPhase2_14TeV_NuGun_MINIAOD_gemsegm_match/250528_115540/0000/step3_NuGunE10_inMINIAODSIM_824.root\u000a
p494
aV/store/user/fnenna/NuGunE10_Phase2_PUstudies_gemsegm/140X_mcPhase2_14TeV_NuGun_MINIAOD_gemsegm_match/250528_115540/0000/step3_NuGunE10_inMINIAODSIM_739.root\u000a
p495
aV/store/user/fnenna/NuGunE10_Phase2_PUstudies_gemsegm/140X_mcPhase2_14TeV_NuGun_MINIAOD_gemsegm_match/250528_115540/0000/step3_NuGunE10_inMINIAODSIM_292.root\u000a
p496
aV/store/user/fnenna/NuGunE10_Phase2_PUstudies_gemsegm/140X_mcPhase2_14TeV_NuGun_MINIAOD_gemsegm_match/250528_115540/0000/step3_NuGunE10_inMINIAODSIM_632.root\u000a
p497
aV/store/user/fnenna/NuGunE10_Phase2_PUstudies_gemsegm/140X_mcPhase2_14TeV_NuGun_MINIAOD_gemsegm_match/250528_115540/0000/step3_NuGunE10_inMINIAODSIM_588.root\u000a
p498
aV/store/user/fnenna/NuGunE10_Phase2_PUstudies_gemsegm/140X_mcPhase2_14TeV_NuGun_MINIAOD_gemsegm_match/250528_115540/0000/step3_NuGunE10_inMINIAODSIM_328.root\u000a
p499
aV/store/user/fnenna/NuGunE10_Phase2_PUstudies_gemsegm/140X_mcPhase2_14TeV_NuGun_MINIAOD_gemsegm_match/250528_115540/0000/step3_NuGunE10_inMINIAODSIM_452.root\u000a
p500
aV/store/user/fnenna/NuGunE10_Phase2_PUstudies_gemsegm/140X_mcPhase2_14TeV_NuGun_MINIAOD_gemsegm_match/250528_115540/0000/step3_NuGunE10_inMINIAODSIM_571.root\u000a
p501
aV/store/user/fnenna/NuGunE10_Phase2_PUstudies_gemsegm/140X_mcPhase2_14TeV_NuGun_MINIAOD_gemsegm_match/250528_115540/0000/step3_NuGunE10_inMINIAODSIM_853.root\u000a
p502
aV/store/user/fnenna/NuGunE10_Phase2_PUstudies_gemsegm/140X_mcPhase2_14TeV_NuGun_MINIAOD_gemsegm_match/250528_115540/0000/step3_NuGunE10_inMINIAODSIM_276.root\u000a
p503
aV/store/user/fnenna/NuGunE10_Phase2_PUstudies_gemsegm/140X_mcPhase2_14TeV_NuGun_MINIAOD_gemsegm_match/250528_115540/0000/step3_NuGunE10_inMINIAODSIM_141.root\u000a
p504
aV/store/user/fnenna/NuGunE10_Phase2_PUstudies_gemsegm/140X_mcPhase2_14TeV_NuGun_MINIAOD_gemsegm_match/250528_115540/0000/step3_NuGunE10_inMINIAODSIM_834.root\u000a
p505
aV/store/user/fnenna/NuGunE10_Phase2_PUstudies_gemsegm/140X_mcPhase2_14TeV_NuGun_MINIAOD_gemsegm_match/250528_115540/0000/step3_NuGunE10_inMINIAODSIM_680.root\u000a
p506
aV/store/user/fnenna/NuGunE10_Phase2_PUstudies_gemsegm/140X_mcPhase2_14TeV_NuGun_MINIAOD_gemsegm_match/250528_115540/0000/step3_NuGunE10_inMINIAODSIM_353.root\u000a
p507
aV/store/user/fnenna/NuGunE10_Phase2_PUstudies_gemsegm/140X_mcPhase2_14TeV_NuGun_MINIAOD_gemsegm_match/250528_115540/0000/step3_NuGunE10_inMINIAODSIM_254.root\u000a
p508
aV/store/user/fnenna/NuGunE10_Phase2_PUstudies_gemsegm/140X_mcPhase2_14TeV_NuGun_MINIAOD_gemsegm_match/250528_115540/0000/step3_NuGunE10_inMINIAODSIM_690.root\u000a
p509
aV/store/user/fnenna/NuGunE10_Phase2_PUstudies_gemsegm/140X_mcPhase2_14TeV_NuGun_MINIAOD_gemsegm_match/250528_115540/0000/step3_NuGunE10_inMINIAODSIM_990.root\u000a
p510
aV/store/user/fnenna/NuGunE10_Phase2_PUstudies_gemsegm/140X_mcPhase2_14TeV_NuGun_MINIAOD_gemsegm_match/250528_115540/0000/step3_NuGunE10_inMINIAODSIM_815.root\u000a
p511
aV/store/user/fnenna/NuGunE10_Phase2_PUstudies_gemsegm/140X_mcPhase2_14TeV_NuGun_MINIAOD_gemsegm_match/250528_115540/0000/step3_NuGunE10_inMINIAODSIM_273.root\u000a
p512
aV/store/user/fnenna/NuGunE10_Phase2_PUstudies_gemsegm/140X_mcPhase2_14TeV_NuGun_MINIAOD_gemsegm_match/250528_115540/0000/step3_NuGunE10_inMINIAODSIM_619.root\u000a
p513
aV/store/user/fnenna/NuGunE10_Phase2_PUstudies_gemsegm/140X_mcPhase2_14TeV_NuGun_MINIAOD_gemsegm_match/250528_115540/0000/step3_NuGunE10_inMINIAODSIM_789.root\u000a
p514
aV/store/user/fnenna/NuGunE10_Phase2_PUstudies_gemsegm/140X_mcPhase2_14TeV_NuGun_MINIAOD_gemsegm_match/250528_115540/0000/step3_NuGunE10_inMINIAODSIM_761.root\u000a
p515
aV/store/user/fnenna/NuGunE10_Phase2_PUstudies_gemsegm/140X_mcPhase2_14TeV_NuGun_MINIAOD_gemsegm_match/250528_115540/0000/step3_NuGunE10_inMINIAODSIM_848.root\u000a
p516
aV/store/user/fnenna/NuGunE10_Phase2_PUstudies_gemsegm/140X_mcPhase2_14TeV_NuGun_MINIAOD_gemsegm_match/250528_115540/0000/step3_NuGunE10_inMINIAODSIM_512.root\u000a
p517
aV/store/user/fnenna/NuGunE10_Phase2_PUstudies_gemsegm/140X_mcPhase2_14TeV_NuGun_MINIAOD_gemsegm_match/250528_115540/0000/step3_NuGunE10_inMINIAODSIM_852.root\u000a
p518
aV/store/user/fnenna/NuGunE10_Phase2_PUstudies_gemsegm/140X_mcPhase2_14TeV_NuGun_MINIAOD_gemsegm_match/250528_115540/0000/step3_NuGunE10_inMINIAODSIM_421.root\u000a
p519
aV/store/user/fnenna/NuGunE10_Phase2_PUstudies_gemsegm/140X_mcPhase2_14TeV_NuGun_MINIAOD_gemsegm_match/250528_115540/0000/step3_NuGunE10_inMINIAODSIM_256.root\u000a
p520
aV/store/user/fnenna/NuGunE10_Phase2_PUstudies_gemsegm/140X_mcPhase2_14TeV_NuGun_MINIAOD_gemsegm_match/250528_115540/0000/step3_NuGunE10_inMINIAODSIM_979.root\u000a
p521
aV/store/user/fnenna/NuGunE10_Phase2_PUstudies_gemsegm/140X_mcPhase2_14TeV_NuGun_MINIAOD_gemsegm_match/250528_115540/0000/step3_NuGunE10_inMINIAODSIM_555.root\u000a
p522
aV/store/user/fnenna/NuGunE10_Phase2_PUstudies_gemsegm/140X_mcPhase2_14TeV_NuGun_MINIAOD_gemsegm_match/250528_115540/0000/step3_NuGunE10_inMINIAODSIM_609.root\u000a
p523
aV/store/user/fnenna/NuGunE10_Phase2_PUstudies_gemsegm/140X_mcPhase2_14TeV_NuGun_MINIAOD_gemsegm_match/250528_115540/0000/step3_NuGunE10_inMINIAODSIM_399.root\u000a
p524
aV/store/user/fnenna/NuGunE10_Phase2_PUstudies_gemsegm/140X_mcPhase2_14TeV_NuGun_MINIAOD_gemsegm_match/250528_115540/0000/step3_NuGunE10_inMINIAODSIM_308.root\u000a
p525
aV/store/user/fnenna/NuGunE10_Phase2_PUstudies_gemsegm/140X_mcPhase2_14TeV_NuGun_MINIAOD_gemsegm_match/250528_115540/0000/step3_NuGunE10_inMINIAODSIM_212.root\u000a
p526
aV/store/user/fnenna/NuGunE10_Phase2_PUstudies_gemsegm/140X_mcPhase2_14TeV_NuGun_MINIAOD_gemsegm_match/250528_115540/0000/step3_NuGunE10_inMINIAODSIM_500.root\u000a
p527
aV/store/user/fnenna/NuGunE10_Phase2_PUstudies_gemsegm/140X_mcPhase2_14TeV_NuGun_MINIAOD_gemsegm_match/250528_115540/0000/step3_NuGunE10_inMINIAODSIM_357.root\u000a
p528
aV/store/user/fnenna/NuGunE10_Phase2_PUstudies_gemsegm/140X_mcPhase2_14TeV_NuGun_MINIAOD_gemsegm_match/250528_115540/0000/step3_NuGunE10_inMINIAODSIM_376.root\u000a
p529
aV/store/user/fnenna/NuGunE10_Phase2_PUstudies_gemsegm/140X_mcPhase2_14TeV_NuGun_MINIAOD_gemsegm_match/250528_115540/0000/step3_NuGunE10_inMINIAODSIM_778.root\u000a
p530
aV/store/user/fnenna/NuGunE10_Phase2_PUstudies_gemsegm/140X_mcPhase2_14TeV_NuGun_MINIAOD_gemsegm_match/250528_115540/0000/step3_NuGunE10_inMINIAODSIM_527.root\u000a
p531
aV/store/user/fnenna/NuGunE10_Phase2_PUstudies_gemsegm/140X_mcPhase2_14TeV_NuGun_MINIAOD_gemsegm_match/250528_115540/0000/step3_NuGunE10_inMINIAODSIM_522.root\u000a
p532
aV/store/user/fnenna/NuGunE10_Phase2_PUstudies_gemsegm/140X_mcPhase2_14TeV_NuGun_MINIAOD_gemsegm_match/250528_115540/0000/step3_NuGunE10_inMINIAODSIM_661.root\u000a
p533
aV/store/user/fnenna/NuGunE10_Phase2_PUstudies_gemsegm/140X_mcPhase2_14TeV_NuGun_MINIAOD_gemsegm_match/250528_115540/0000/step3_NuGunE10_inMINIAODSIM_317.root\u000a
p534
aV/store/user/fnenna/NuGunE10_Phase2_PUstudies_gemsegm/140X_mcPhase2_14TeV_NuGun_MINIAOD_gemsegm_match/250528_115540/0000/step3_NuGunE10_inMINIAODSIM_133.root\u000a
p535
aV/store/user/fnenna/NuGunE10_Phase2_PUstudies_gemsegm/140X_mcPhase2_14TeV_NuGun_MINIAOD_gemsegm_match/250528_115540/0000/step3_NuGunE10_inMINIAODSIM_976.root\u000a
p536
aV/store/user/fnenna/NuGunE10_Phase2_PUstudies_gemsegm/140X_mcPhase2_14TeV_NuGun_MINIAOD_gemsegm_match/250528_115540/0000/step3_NuGunE10_inMINIAODSIM_327.root\u000a
p537
aV/store/user/fnenna/NuGunE10_Phase2_PUstudies_gemsegm/140X_mcPhase2_14TeV_NuGun_MINIAOD_gemsegm_match/250528_115540/0000/step3_NuGunE10_inMINIAODSIM_161.root\u000a
p538
aV/store/user/fnenna/NuGunE10_Phase2_PUstudies_gemsegm/140X_mcPhase2_14TeV_NuGun_MINIAOD_gemsegm_match/250528_115540/0000/step3_NuGunE10_inMINIAODSIM_548.root\u000a
p539
aV/store/user/fnenna/NuGunE10_Phase2_PUstudies_gemsegm/140X_mcPhase2_14TeV_NuGun_MINIAOD_gemsegm_match/250528_115540/0000/step3_NuGunE10_inMINIAODSIM_895.root\u000a
p540
aV/store/user/fnenna/NuGunE10_Phase2_PUstudies_gemsegm/140X_mcPhase2_14TeV_NuGun_MINIAOD_gemsegm_match/250528_115540/0000/step3_NuGunE10_inMINIAODSIM_407.root\u000a
p541
aV/store/user/fnenna/NuGunE10_Phase2_PUstudies_gemsegm/140X_mcPhase2_14TeV_NuGun_MINIAOD_gemsegm_match/250528_115540/0000/step3_NuGunE10_inMINIAODSIM_945.root\u000a
p542
aV/store/user/fnenna/NuGunE10_Phase2_PUstudies_gemsegm/140X_mcPhase2_14TeV_NuGun_MINIAOD_gemsegm_match/250528_115540/0000/step3_NuGunE10_inMINIAODSIM_259.root\u000a
p543
aV/store/user/fnenna/NuGunE10_Phase2_PUstudies_gemsegm/140X_mcPhase2_14TeV_NuGun_MINIAOD_gemsegm_match/250528_115540/0000/step3_NuGunE10_inMINIAODSIM_523.root\u000a
p544
aV/store/user/fnenna/NuGunE10_Phase2_PUstudies_gemsegm/140X_mcPhase2_14TeV_NuGun_MINIAOD_gemsegm_match/250528_115540/0000/step3_NuGunE10_inMINIAODSIM_318.root\u000a
p545
aV/store/user/fnenna/NuGunE10_Phase2_PUstudies_gemsegm/140X_mcPhase2_14TeV_NuGun_MINIAOD_gemsegm_match/250528_115540/0000/step3_NuGunE10_inMINIAODSIM_89.root\u000a
p546
aV/store/user/fnenna/NuGunE10_Phase2_PUstudies_gemsegm/140X_mcPhase2_14TeV_NuGun_MINIAOD_gemsegm_match/250528_115540/0000/step3_NuGunE10_inMINIAODSIM_198.root\u000a
p547
aV/store/user/fnenna/NuGunE10_Phase2_PUstudies_gemsegm/140X_mcPhase2_14TeV_NuGun_MINIAOD_gemsegm_match/250528_115540/0000/step3_NuGunE10_inMINIAODSIM_410.root\u000a
p548
aV/store/user/fnenna/NuGunE10_Phase2_PUstudies_gemsegm/140X_mcPhase2_14TeV_NuGun_MINIAOD_gemsegm_match/250528_115540/0000/step3_NuGunE10_inMINIAODSIM_569.root\u000a
p549
aV/store/user/fnenna/NuGunE10_Phase2_PUstudies_gemsegm/140X_mcPhase2_14TeV_NuGun_MINIAOD_gemsegm_match/250528_115540/0000/step3_NuGunE10_inMINIAODSIM_392.root\u000a
p550
aV/store/user/fnenna/NuGunE10_Phase2_PUstudies_gemsegm/140X_mcPhase2_14TeV_NuGun_MINIAOD_gemsegm_match/250528_115540/0000/step3_NuGunE10_inMINIAODSIM_940.root\u000a
p551
aV/store/user/fnenna/NuGunE10_Phase2_PUstudies_gemsegm/140X_mcPhase2_14TeV_NuGun_MINIAOD_gemsegm_match/250528_115540/0000/step3_NuGunE10_inMINIAODSIM_206.root\u000a
p552
aV/store/user/fnenna/NuGunE10_Phase2_PUstudies_gemsegm/140X_mcPhase2_14TeV_NuGun_MINIAOD_gemsegm_match/250528_115540/0000/step3_NuGunE10_inMINIAODSIM_312.root\u000a
p553
aV/store/user/fnenna/NuGunE10_Phase2_PUstudies_gemsegm/140X_mcPhase2_14TeV_NuGun_MINIAOD_gemsegm_match/250528_115540/0000/step3_NuGunE10_inMINIAODSIM_417.root\u000a
p554
aV/store/user/fnenna/NuGunE10_Phase2_PUstudies_gemsegm/140X_mcPhase2_14TeV_NuGun_MINIAOD_gemsegm_match/250528_115540/0000/step3_NuGunE10_inMINIAODSIM_383.root\u000a
p555
aV/store/user/fnenna/NuGunE10_Phase2_PUstudies_gemsegm/140X_mcPhase2_14TeV_NuGun_MINIAOD_gemsegm_match/250528_115540/0000/step3_NuGunE10_inMINIAODSIM_364.root\u000a
p556
aV/store/user/fnenna/NuGunE10_Phase2_PUstudies_gemsegm/140X_mcPhase2_14TeV_NuGun_MINIAOD_gemsegm_match/250528_115540/0000/step3_NuGunE10_inMINIAODSIM_557.root\u000a
p557
aV/store/user/fnenna/NuGunE10_Phase2_PUstudies_gemsegm/140X_mcPhase2_14TeV_NuGun_MINIAOD_gemsegm_match/250528_115540/0000/step3_NuGunE10_inMINIAODSIM_230.root\u000a
p558
aV/store/user/fnenna/NuGunE10_Phase2_PUstudies_gemsegm/140X_mcPhase2_14TeV_NuGun_MINIAOD_gemsegm_match/250528_115540/0000/step3_NuGunE10_inMINIAODSIM_805.root\u000a
p559
aV/store/user/fnenna/NuGunE10_Phase2_PUstudies_gemsegm/140X_mcPhase2_14TeV_NuGun_MINIAOD_gemsegm_match/250528_115540/0000/step3_NuGunE10_inMINIAODSIM_429.root\u000a
p560
aV/store/user/fnenna/NuGunE10_Phase2_PUstudies_gemsegm/140X_mcPhase2_14TeV_NuGun_MINIAOD_gemsegm_match/250528_115540/0000/step3_NuGunE10_inMINIAODSIM_165.root\u000a
p561
aV/store/user/fnenna/NuGunE10_Phase2_PUstudies_gemsegm/140X_mcPhase2_14TeV_NuGun_MINIAOD_gemsegm_match/250528_115540/0000/step3_NuGunE10_inMINIAODSIM_510.root\u000a
p562
aV/store/user/fnenna/NuGunE10_Phase2_PUstudies_gemsegm/140X_mcPhase2_14TeV_NuGun_MINIAOD_gemsegm_match/250528_115540/0000/step3_NuGunE10_inMINIAODSIM_329.root\u000a
p563
aV/store/user/fnenna/NuGunE10_Phase2_PUstudies_gemsegm/140X_mcPhase2_14TeV_NuGun_MINIAOD_gemsegm_match/250528_115540/0000/step3_NuGunE10_inMINIAODSIM_957.root\u000a
p564
aV/store/user/fnenna/NuGunE10_Phase2_PUstudies_gemsegm/140X_mcPhase2_14TeV_NuGun_MINIAOD_gemsegm_match/250528_115540/0000/step3_NuGunE10_inMINIAODSIM_526.root\u000a
p565
aV/store/user/fnenna/NuGunE10_Phase2_PUstudies_gemsegm/140X_mcPhase2_14TeV_NuGun_MINIAOD_gemsegm_match/250528_115540/0000/step3_NuGunE10_inMINIAODSIM_535.root\u000a
p566
aV/store/user/fnenna/NuGunE10_Phase2_PUstudies_gemsegm/140X_mcPhase2_14TeV_NuGun_MINIAOD_gemsegm_match/250528_115540/0000/step3_NuGunE10_inMINIAODSIM_582.root\u000a
p567
aV/store/user/fnenna/NuGunE10_Phase2_PUstudies_gemsegm/140X_mcPhase2_14TeV_NuGun_MINIAOD_gemsegm_match/250528_115540/0000/step3_NuGunE10_inMINIAODSIM_390.root\u000a
p568
aV/store/user/fnenna/NuGunE10_Phase2_PUstudies_gemsegm/140X_mcPhase2_14TeV_NuGun_MINIAOD_gemsegm_match/250528_115540/0000/step3_NuGunE10_inMINIAODSIM_948.root\u000a
p569
aV/store/user/fnenna/NuGunE10_Phase2_PUstudies_gemsegm/140X_mcPhase2_14TeV_NuGun_MINIAOD_gemsegm_match/250528_115540/0000/step3_NuGunE10_inMINIAODSIM_524.root\u000a
p570
aV/store/user/fnenna/NuGunE10_Phase2_PUstudies_gemsegm/140X_mcPhase2_14TeV_NuGun_MINIAOD_gemsegm_match/250528_115540/0000/step3_NuGunE10_inMINIAODSIM_171.root\u000a
p571
aV/store/user/fnenna/NuGunE10_Phase2_PUstudies_gemsegm/140X_mcPhase2_14TeV_NuGun_MINIAOD_gemsegm_match/250528_115540/0000/step3_NuGunE10_inMINIAODSIM_303.root\u000a
p572
aV/store/user/fnenna/NuGunE10_Phase2_PUstudies_gemsegm/140X_mcPhase2_14TeV_NuGun_MINIAOD_gemsegm_match/250528_115540/0000/step3_NuGunE10_inMINIAODSIM_577.root\u000a
p573
aV/store/user/fnenna/NuGunE10_Phase2_PUstudies_gemsegm/140X_mcPhase2_14TeV_NuGun_MINIAOD_gemsegm_match/250528_115540/0000/step3_NuGunE10_inMINIAODSIM_142.root\u000a
p574
aV/store/user/fnenna/NuGunE10_Phase2_PUstudies_gemsegm/140X_mcPhase2_14TeV_NuGun_MINIAOD_gemsegm_match/250528_115540/0000/step3_NuGunE10_inMINIAODSIM_285.root\u000a
p575
aV/store/user/fnenna/NuGunE10_Phase2_PUstudies_gemsegm/140X_mcPhase2_14TeV_NuGun_MINIAOD_gemsegm_match/250528_115540/0000/step3_NuGunE10_inMINIAODSIM_315.root\u000a
p576
aV/store/user/fnenna/NuGunE10_Phase2_PUstudies_gemsegm/140X_mcPhase2_14TeV_NuGun_MINIAOD_gemsegm_match/250528_115540/0000/step3_NuGunE10_inMINIAODSIM_335.root\u000a
p577
aV/store/user/fnenna/NuGunE10_Phase2_PUstudies_gemsegm/140X_mcPhase2_14TeV_NuGun_MINIAOD_gemsegm_match/250528_115540/0000/step3_NuGunE10_inMINIAODSIM_406.root\u000a
p578
aV/store/user/fnenna/NuGunE10_Phase2_PUstudies_gemsegm/140X_mcPhase2_14TeV_NuGun_MINIAOD_gemsegm_match/250528_115540/0000/step3_NuGunE10_inMINIAODSIM_686.root\u000a
p579
aV/store/user/fnenna/NuGunE10_Phase2_PUstudies_gemsegm/140X_mcPhase2_14TeV_NuGun_MINIAOD_gemsegm_match/250528_115540/0000/step3_NuGunE10_inMINIAODSIM_931.root\u000a
p580
aV/store/user/fnenna/NuGunE10_Phase2_PUstudies_gemsegm/140X_mcPhase2_14TeV_NuGun_MINIAOD_gemsegm_match/250528_115540/0000/step3_NuGunE10_inMINIAODSIM_339.root\u000a
p581
aV/store/user/fnenna/NuGunE10_Phase2_PUstudies_gemsegm/140X_mcPhase2_14TeV_NuGun_MINIAOD_gemsegm_match/250528_115540/0000/step3_NuGunE10_inMINIAODSIM_272.root\u000a
p582
aV/store/user/fnenna/NuGunE10_Phase2_PUstudies_gemsegm/140X_mcPhase2_14TeV_NuGun_MINIAOD_gemsegm_match/250528_115540/0000/step3_NuGunE10_inMINIAODSIM_24.root\u000a
p583
aV/store/user/fnenna/NuGunE10_Phase2_PUstudies_gemsegm/140X_mcPhase2_14TeV_NuGun_MINIAOD_gemsegm_match/250528_115540/0000/step3_NuGunE10_inMINIAODSIM_573.root\u000a
p584
aV/store/user/fnenna/NuGunE10_Phase2_PUstudies_gemsegm/140X_mcPhase2_14TeV_NuGun_MINIAOD_gemsegm_match/250528_115540/0000/step3_NuGunE10_inMINIAODSIM_562.root\u000a
p585
aV/store/user/fnenna/NuGunE10_Phase2_PUstudies_gemsegm/140X_mcPhase2_14TeV_NuGun_MINIAOD_gemsegm_match/250528_115540/0000/step3_NuGunE10_inMINIAODSIM_773.root\u000a
p586
aV/store/user/fnenna/NuGunE10_Phase2_PUstudies_gemsegm/140X_mcPhase2_14TeV_NuGun_MINIAOD_gemsegm_match/250528_115540/0000/step3_NuGunE10_inMINIAODSIM_232.root\u000a
p587
aV/store/user/fnenna/NuGunE10_Phase2_PUstudies_gemsegm/140X_mcPhase2_14TeV_NuGun_MINIAOD_gemsegm_match/250528_115540/0000/step3_NuGunE10_inMINIAODSIM_69.root\u000a
p588
aV/store/user/fnenna/NuGunE10_Phase2_PUstudies_gemsegm/140X_mcPhase2_14TeV_NuGun_MINIAOD_gemsegm_match/250528_115540/0000/step3_NuGunE10_inMINIAODSIM_629.root\u000a
p589
aV/store/user/fnenna/NuGunE10_Phase2_PUstudies_gemsegm/140X_mcPhase2_14TeV_NuGun_MINIAOD_gemsegm_match/250528_115540/0000/step3_NuGunE10_inMINIAODSIM_460.root\u000a
p590
aV/store/user/fnenna/NuGunE10_Phase2_PUstudies_gemsegm/140X_mcPhase2_14TeV_NuGun_MINIAOD_gemsegm_match/250528_115540/0000/step3_NuGunE10_inMINIAODSIM_465.root\u000a
p591
aV/store/user/fnenna/NuGunE10_Phase2_PUstudies_gemsegm/140X_mcPhase2_14TeV_NuGun_MINIAOD_gemsegm_match/250528_115540/0000/step3_NuGunE10_inMINIAODSIM_728.root\u000a
p592
aV/store/user/fnenna/NuGunE10_Phase2_PUstudies_gemsegm/140X_mcPhase2_14TeV_NuGun_MINIAOD_gemsegm_match/250528_115540/0000/step3_NuGunE10_inMINIAODSIM_244.root\u000a
p593
aV/store/user/fnenna/NuGunE10_Phase2_PUstudies_gemsegm/140X_mcPhase2_14TeV_NuGun_MINIAOD_gemsegm_match/250528_115540/0000/step3_NuGunE10_inMINIAODSIM_304.root\u000a
p594
aV/store/user/fnenna/NuGunE10_Phase2_PUstudies_gemsegm/140X_mcPhase2_14TeV_NuGun_MINIAOD_gemsegm_match/250528_115540/0000/step3_NuGunE10_inMINIAODSIM_306.root\u000a
p595
aV/store/user/fnenna/NuGunE10_Phase2_PUstudies_gemsegm/140X_mcPhase2_14TeV_NuGun_MINIAOD_gemsegm_match/250528_115540/0000/step3_NuGunE10_inMINIAODSIM_96.root\u000a
p596
aV/store/user/fnenna/NuGunE10_Phase2_PUstudies_gemsegm/140X_mcPhase2_14TeV_NuGun_MINIAOD_gemsegm_match/250528_115540/0000/step3_NuGunE10_inMINIAODSIM_644.root\u000a
p597
aV/store/user/fnenna/NuGunE10_Phase2_PUstudies_gemsegm/140X_mcPhase2_14TeV_NuGun_MINIAOD_gemsegm_match/250528_115540/0000/step3_NuGunE10_inMINIAODSIM_693.root\u000a
p598
aV/store/user/fnenna/NuGunE10_Phase2_PUstudies_gemsegm/140X_mcPhase2_14TeV_NuGun_MINIAOD_gemsegm_match/250528_115540/0000/step3_NuGunE10_inMINIAODSIM_699.root\u000a
p599
aV/store/user/fnenna/NuGunE10_Phase2_PUstudies_gemsegm/140X_mcPhase2_14TeV_NuGun_MINIAOD_gemsegm_match/250528_115540/0000/step3_NuGunE10_inMINIAODSIM_673.root\u000a
p600
aV/store/user/fnenna/NuGunE10_Phase2_PUstudies_gemsegm/140X_mcPhase2_14TeV_NuGun_MINIAOD_gemsegm_match/250528_115540/0000/step3_NuGunE10_inMINIAODSIM_676.root\u000a
p601
aV/store/user/fnenna/NuGunE10_Phase2_PUstudies_gemsegm/140X_mcPhase2_14TeV_NuGun_MINIAOD_gemsegm_match/250528_115540/0000/step3_NuGunE10_inMINIAODSIM_194.root\u000a
p602
aV/store/user/fnenna/NuGunE10_Phase2_PUstudies_gemsegm/140X_mcPhase2_14TeV_NuGun_MINIAOD_gemsegm_match/250528_115540/0000/step3_NuGunE10_inMINIAODSIM_720.root\u000a
p603
aV/store/user/fnenna/NuGunE10_Phase2_PUstudies_gemsegm/140X_mcPhase2_14TeV_NuGun_MINIAOD_gemsegm_match/250528_115540/0000/step3_NuGunE10_inMINIAODSIM_981.root\u000a
p604
aV/store/user/fnenna/NuGunE10_Phase2_PUstudies_gemsegm/140X_mcPhase2_14TeV_NuGun_MINIAOD_gemsegm_match/250528_115540/0000/step3_NuGunE10_inMINIAODSIM_402.root\u000a
p605
aV/store/user/fnenna/NuGunE10_Phase2_PUstudies_gemsegm/140X_mcPhase2_14TeV_NuGun_MINIAOD_gemsegm_match/250528_115540/0000/step3_NuGunE10_inMINIAODSIM_892.root\u000a
p606
aV/store/user/fnenna/NuGunE10_Phase2_PUstudies_gemsegm/140X_mcPhase2_14TeV_NuGun_MINIAOD_gemsegm_match/250528_115540/0000/step3_NuGunE10_inMINIAODSIM_302.root\u000a
p607
aV/store/user/fnenna/NuGunE10_Phase2_PUstudies_gemsegm/140X_mcPhase2_14TeV_NuGun_MINIAOD_gemsegm_match/250528_115540/0000/step3_NuGunE10_inMINIAODSIM_985.root\u000a
p608
aV/store/user/fnenna/NuGunE10_Phase2_PUstudies_gemsegm/140X_mcPhase2_14TeV_NuGun_MINIAOD_gemsegm_match/250528_115540/0000/step3_NuGunE10_inMINIAODSIM_370.root\u000a
p609
aV/store/user/fnenna/NuGunE10_Phase2_PUstudies_gemsegm/140X_mcPhase2_14TeV_NuGun_MINIAOD_gemsegm_match/250528_115540/0000/step3_NuGunE10_inMINIAODSIM_177.root\u000a
p610
aV/store/user/fnenna/NuGunE10_Phase2_PUstudies_gemsegm/140X_mcPhase2_14TeV_NuGun_MINIAOD_gemsegm_match/250528_115540/0000/step3_NuGunE10_inMINIAODSIM_589.root\u000a
p611
aV/store/user/fnenna/NuGunE10_Phase2_PUstudies_gemsegm/140X_mcPhase2_14TeV_NuGun_MINIAOD_gemsegm_match/250528_115540/0000/step3_NuGunE10_inMINIAODSIM_237.root\u000a
p612
aV/store/user/fnenna/NuGunE10_Phase2_PUstudies_gemsegm/140X_mcPhase2_14TeV_NuGun_MINIAOD_gemsegm_match/250528_115540/0000/step3_NuGunE10_inMINIAODSIM_487.root\u000a
p613
aV/store/user/fnenna/NuGunE10_Phase2_PUstudies_gemsegm/140X_mcPhase2_14TeV_NuGun_MINIAOD_gemsegm_match/250528_115540/0000/step3_NuGunE10_inMINIAODSIM_442.root\u000a
p614
aV/store/user/fnenna/NuGunE10_Phase2_PUstudies_gemsegm/140X_mcPhase2_14TeV_NuGun_MINIAOD_gemsegm_match/250528_115540/0000/step3_NuGunE10_inMINIAODSIM_616.root\u000a
p615
aV/store/user/fnenna/NuGunE10_Phase2_PUstudies_gemsegm/140X_mcPhase2_14TeV_NuGun_MINIAOD_gemsegm_match/250528_115540/0000/step3_NuGunE10_inMINIAODSIM_980.root\u000a
p616
aV/store/user/fnenna/NuGunE10_Phase2_PUstudies_gemsegm/140X_mcPhase2_14TeV_NuGun_MINIAOD_gemsegm_match/250528_115540/0000/step3_NuGunE10_inMINIAODSIM_838.root\u000a
p617
aV/store/user/fnenna/NuGunE10_Phase2_PUstudies_gemsegm/140X_mcPhase2_14TeV_NuGun_MINIAOD_gemsegm_match/250528_115540/0000/step3_NuGunE10_inMINIAODSIM_85.root\u000a
p618
aV/store/user/fnenna/NuGunE10_Phase2_PUstudies_gemsegm/140X_mcPhase2_14TeV_NuGun_MINIAOD_gemsegm_match/250528_115540/0000/step3_NuGunE10_inMINIAODSIM_344.root\u000a
p619
aV/store/user/fnenna/NuGunE10_Phase2_PUstudies_gemsegm/140X_mcPhase2_14TeV_NuGun_MINIAOD_gemsegm_match/250528_115540/0000/step3_NuGunE10_inMINIAODSIM_164.root\u000a
p620
aV/store/user/fnenna/NuGunE10_Phase2_PUstudies_gemsegm/140X_mcPhase2_14TeV_NuGun_MINIAOD_gemsegm_match/250528_115540/0000/step3_NuGunE10_inMINIAODSIM_347.root\u000a
p621
aV/store/user/fnenna/NuGunE10_Phase2_PUstudies_gemsegm/140X_mcPhase2_14TeV_NuGun_MINIAOD_gemsegm_match/250528_115540/0000/step3_NuGunE10_inMINIAODSIM_825.root\u000a
p622
aV/store/user/fnenna/NuGunE10_Phase2_PUstudies_gemsegm/140X_mcPhase2_14TeV_NuGun_MINIAOD_gemsegm_match/250528_115540/0000/step3_NuGunE10_inMINIAODSIM_143.root\u000a
p623
aV/store/user/fnenna/NuGunE10_Phase2_PUstudies_gemsegm/140X_mcPhase2_14TeV_NuGun_MINIAOD_gemsegm_match/250528_115540/0000/step3_NuGunE10_inMINIAODSIM_914.root\u000a
p624
aV/store/user/fnenna/NuGunE10_Phase2_PUstudies_gemsegm/140X_mcPhase2_14TeV_NuGun_MINIAOD_gemsegm_match/250528_115540/0000/step3_NuGunE10_inMINIAODSIM_578.root\u000a
p625
asg72
Vphys03
p626
sg73
VFileBased
p627
sg71
I5
sg75
I01
sg74
g50
sbsg24
g13
(g27
g15
Ntp628
Rp629
(dp630
g31
g4
sg32
g24
sg33
g34
((lp631
VstorageSite
p632
aVignoreGlobalBlacklist
p633
atp634
Rp635
sg42
(dp636
sg44
g34
((lp637
tp638
Rp639
sg48
Nsg49
I00
sg632
VT2_IT_Bari
p640
sg633
I01
sbsg25
g13
(g27
g15
Ntp641
Rp642
(dp643
g31
g4
sg32
g25
sg33
g34
((lp644
tp645
Rp646
sg42
(dp647
sg44
g34
((lp648
tp649
Rp650
sg48
Nsg49
I00
sbsg26
g13
(g27
g15
Ntp651
Rp652
(dp653
g31
g4
sg32
g26
sg33
g34
((lp654
tp655
Rp656
sg42
(dp657
sg44
g34
((lp658
tp659
Rp660
sg48
Nsg49
I00
sbsbs.