(dp0
VServer
p1
Vcmsweb.cern.ch
p2
sVPort
p3
V
p4
sVRequestName
p5
V250525_221948:fnenna_crab_140X_mcPhase2_NuGunPU200_MiniaodAna_gemsegm_v1Prel
p6
sVvoRole
p7
VNULL
p8
sVvoGroup
p9
g4
sVinstance
p10
Vprod
p11
sVOriginalConfig
p12
ccopy_reg
_reconstructor
p13
(cWMCore.Configuration
Configuration
p14
c__builtin__
object
p15
Ntp16
Rp17
(dp18
V_internal_sections
p19
(lp20
VGeneral
p21
aVJobType
p22
aVData
p23
aVSite
p24
aVUser
p25
aVDebug
p26
asg21
g13
(cWMCore.Configuration
ConfigSection
p27
g15
Ntp28
Rp29
(dp30
V_internal_documentation
p31
g4
sV_internal_name
p32
g21
sV_internal_settings
p33
c__builtin__
set
p34
((lp35
VrequestName
p36
aVtransferLogs
p37
aVworkArea
p38
aVtransferOutputs
p39
atp40
Rp41
sV_internal_docstrings
p42
(dp43
sV_internal_children
p44
g34
((lp45
tp46
Rp47
sV_internal_parent_ref
p48
NsV_internal_skipChecks
p49
I00
sg36
V140X_mcPhase2_NuGunPU200_MiniaodAna_gemsegm_v1Prel
p50
sg38
Vcrab_projects
p51
sg39
I01
sg37
I01
sbsg22
g13
(g27
g15
Ntp52
Rp53
(dp54
g31
g4
sg32
g22
sg33
g34
((lp55
VpluginName
p56
aVpsetName
p57
aVallowUndistributedCMSSW
p58
atp59
Rp60
sg42
(dp61
sg44
g34
((lp62
tp63
Rp64
sg48
Nsg49
I00
sg56
VAnalysis
p65
sg57
V/lustrehome/felicenenna/tau3mu/CMSSW_14_0_17/src/GenAnalyser/GenAnalyzer/python/genAnalyser_cff.py
p66
sg58
I01
sbsg23
g13
(g27
g15
Ntp67
Rp68
(dp69
g31
g4
sg32
g23
sg33
g34
((lp70
VoutputDatasetTag
p71
aVoutputPrimaryDataset
p72
aVpublication
p73
aVuserInputFiles
p74
aVunitsPerJob
p75
aVsplitting
p76
aVinputDBS
p77
atp78
Rp79
sg42
(dp80
sg44
g34
((lp81
tp82
Rp83
sg48
Nsg49
I00
sg72
VNuGunE10_Phase2_PUstudies_gemsegm
p84
sg74
(lp85
V/store/user/fnenna/NuGunE10_Phase2_PUstudies/140X_mcPhase2_14TeV_NuGun_MINIAOD_gemsegm/250524_110223/0000/step3_NuGunE10_inMINIAODSIM_882.root\u000a
p86
aV/store/user/fnenna/NuGunE10_Phase2_PUstudies/140X_mcPhase2_14TeV_NuGun_MINIAOD_gemsegm/250524_110223/0000/step3_NuGunE10_inMINIAODSIM_233.root\u000a
p87
aV/store/user/fnenna/NuGunE10_Phase2_PUstudies/140X_mcPhase2_14TeV_NuGun_MINIAOD_gemsegm/250524_110223/0000/step3_NuGunE10_inMINIAODSIM_40.root\u000a
p88
aV/store/user/fnenna/NuGunE10_Phase2_PUstudies/140X_mcPhase2_14TeV_NuGun_MINIAOD_gemsegm/250524_110223/0000/step3_NuGunE10_inMINIAODSIM_310.root\u000a
p89
aV/store/user/fnenna/NuGunE10_Phase2_PUstudies/140X_mcPhase2_14TeV_NuGun_MINIAOD_gemsegm/250524_110223/0000/step3_NuGunE10_inMINIAODSIM_323.root\u000a
p90
aV/store/user/fnenna/NuGunE10_Phase2_PUstudies/140X_mcPhase2_14TeV_NuGun_MINIAOD_gemsegm/250524_110223/0000/step3_NuGunE10_inMINIAODSIM_314.root\u000a
p91
aV/store/user/fnenna/NuGunE10_Phase2_PUstudies/140X_mcPhase2_14TeV_NuGun_MINIAOD_gemsegm/250524_110223/0000/step3_NuGunE10_inMINIAODSIM_587.root\u000a
p92
aV/store/user/fnenna/NuGunE10_Phase2_PUstudies/140X_mcPhase2_14TeV_NuGun_MINIAOD_gemsegm/250524_110223/0000/step3_NuGunE10_inMINIAODSIM_447.root\u000a
p93
aV/store/user/fnenna/NuGunE10_Phase2_PUstudies/140X_mcPhase2_14TeV_NuGun_MINIAOD_gemsegm/250524_110223/0000/step3_NuGunE10_inMINIAODSIM_163.root\u000a
p94
aV/store/user/fnenna/NuGunE10_Phase2_PUstudies/140X_mcPhase2_14TeV_NuGun_MINIAOD_gemsegm/250524_110223/0000/step3_NuGunE10_inMINIAODSIM_813.root\u000a
p95
aV/store/user/fnenna/NuGunE10_Phase2_PUstudies/140X_mcPhase2_14TeV_NuGun_MINIAOD_gemsegm/250524_110223/0000/step3_NuGunE10_inMINIAODSIM_167.root\u000a
p96
aV/store/user/fnenna/NuGunE10_Phase2_PUstudies/140X_mcPhase2_14TeV_NuGun_MINIAOD_gemsegm/250524_110223/0000/step3_NuGunE10_inMINIAODSIM_907.root\u000a
p97
aV/store/user/fnenna/NuGunE10_Phase2_PUstudies/140X_mcPhase2_14TeV_NuGun_MINIAOD_gemsegm/250524_110223/0000/step3_NuGunE10_inMINIAODSIM_144.root\u000a
p98
aV/store/user/fnenna/NuGunE10_Phase2_PUstudies/140X_mcPhase2_14TeV_NuGun_MINIAOD_gemsegm/250524_110223/0000/step3_NuGunE10_inMINIAODSIM_372.root\u000a
p99
aV/store/user/fnenna/NuGunE10_Phase2_PUstudies/140X_mcPhase2_14TeV_NuGun_MINIAOD_gemsegm/250524_110223/0000/step3_NuGunE10_inMINIAODSIM_950.root\u000a
p100
aV/store/user/fnenna/NuGunE10_Phase2_PUstudies/140X_mcPhase2_14TeV_NuGun_MINIAOD_gemsegm/250524_110223/0000/step3_NuGunE10_inMINIAODSIM_909.root\u000a
p101
aV/store/user/fnenna/NuGunE10_Phase2_PUstudies/140X_mcPhase2_14TeV_NuGun_MINIAOD_gemsegm/250524_110223/0000/step3_NuGunE10_inMINIAODSIM_481.root\u000a
p102
aV/store/user/fnenna/NuGunE10_Phase2_PUstudies/140X_mcPhase2_14TeV_NuGun_MINIAOD_gemsegm/250524_110223/0000/step3_NuGunE10_inMINIAODSIM_536.root\u000a
p103
aV/store/user/fnenna/NuGunE10_Phase2_PUstudies/140X_mcPhase2_14TeV_NuGun_MINIAOD_gemsegm/250524_110223/0000/step3_NuGunE10_inMINIAODSIM_977.root\u000a
p104
aV/store/user/fnenna/NuGunE10_Phase2_PUstudies/140X_mcPhase2_14TeV_NuGun_MINIAOD_gemsegm/250524_110223/0000/step3_NuGunE10_inMINIAODSIM_246.root\u000a
p105
aV/store/user/fnenna/NuGunE10_Phase2_PUstudies/140X_mcPhase2_14TeV_NuGun_MINIAOD_gemsegm/250524_110223/0000/step3_NuGunE10_inMINIAODSIM_705.root\u000a
p106
aV/store/user/fnenna/NuGunE10_Phase2_PUstudies/140X_mcPhase2_14TeV_NuGun_MINIAOD_gemsegm/250524_110223/0000/step3_NuGunE10_inMINIAODSIM_829.root\u000a
p107
aV/store/user/fnenna/NuGunE10_Phase2_PUstudies/140X_mcPhase2_14TeV_NuGun_MINIAOD_gemsegm/250524_110223/0000/step3_NuGunE10_inMINIAODSIM_101.root\u000a
p108
aV/store/user/fnenna/NuGunE10_Phase2_PUstudies/140X_mcPhase2_14TeV_NuGun_MINIAOD_gemsegm/250524_110223/0000/step3_NuGunE10_inMINIAODSIM_295.root\u000a
p109
aV/store/user/fnenna/NuGunE10_Phase2_PUstudies/140X_mcPhase2_14TeV_NuGun_MINIAOD_gemsegm/250524_110223/0000/step3_NuGunE10_inMINIAODSIM_223.root\u000a
p110
aV/store/user/fnenna/NuGunE10_Phase2_PUstudies/140X_mcPhase2_14TeV_NuGun_MINIAOD_gemsegm/250524_110223/0000/step3_NuGunE10_inMINIAODSIM_709.root\u000a
p111
aV/store/user/fnenna/NuGunE10_Phase2_PUstudies/140X_mcPhase2_14TeV_NuGun_MINIAOD_gemsegm/250524_110223/0000/step3_NuGunE10_inMINIAODSIM_55.root\u000a
p112
aV/store/user/fnenna/NuGunE10_Phase2_PUstudies/140X_mcPhase2_14TeV_NuGun_MINIAOD_gemsegm/250524_110223/0000/step3_NuGunE10_inMINIAODSIM_960.root\u000a
p113
aV/store/user/fnenna/NuGunE10_Phase2_PUstudies/140X_mcPhase2_14TeV_NuGun_MINIAOD_gemsegm/250524_110223/0000/step3_NuGunE10_inMINIAODSIM_556.root\u000a
p114
aV/store/user/fnenna/NuGunE10_Phase2_PUstudies/140X_mcPhase2_14TeV_NuGun_MINIAOD_gemsegm/250524_110223/0000/step3_NuGunE10_inMINIAODSIM_777.root\u000a
p115
aV/store/user/fnenna/NuGunE10_Phase2_PUstudies/140X_mcPhase2_14TeV_NuGun_MINIAOD_gemsegm/250524_110223/0000/step3_NuGunE10_inMINIAODSIM_488.root\u000a
p116
aV/store/user/fnenna/NuGunE10_Phase2_PUstudies/140X_mcPhase2_14TeV_NuGun_MINIAOD_gemsegm/250524_110223/0000/step3_NuGunE10_inMINIAODSIM_216.root\u000a
p117
aV/store/user/fnenna/NuGunE10_Phase2_PUstudies/140X_mcPhase2_14TeV_NuGun_MINIAOD_gemsegm/250524_110223/0000/step3_NuGunE10_inMINIAODSIM_107.root\u000a
p118
aV/store/user/fnenna/NuGunE10_Phase2_PUstudies/140X_mcPhase2_14TeV_NuGun_MINIAOD_gemsegm/250524_110223/0000/step3_NuGunE10_inMINIAODSIM_187.root\u000a
p119
aV/store/user/fnenna/NuGunE10_Phase2_PUstudies/140X_mcPhase2_14TeV_NuGun_MINIAOD_gemsegm/250524_110223/0000/step3_NuGunE10_inMINIAODSIM_12.root\u000a
p120
aV/store/user/fnenna/NuGunE10_Phase2_PUstudies/140X_mcPhase2_14TeV_NuGun_MINIAOD_gemsegm/250524_110223/0000/step3_NuGunE10_inMINIAODSIM_498.root\u000a
p121
aV/store/user/fnenna/NuGunE10_Phase2_PUstudies/140X_mcPhase2_14TeV_NuGun_MINIAOD_gemsegm/250524_110223/0000/step3_NuGunE10_inMINIAODSIM_941.root\u000a
p122
aV/store/user/fnenna/NuGunE10_Phase2_PUstudies/140X_mcPhase2_14TeV_NuGun_MINIAOD_gemsegm/250524_110223/0000/step3_NuGunE10_inMINIAODSIM_819.root\u000a
p123
aV/store/user/fnenna/NuGunE10_Phase2_PUstudies/140X_mcPhase2_14TeV_NuGun_MINIAOD_gemsegm/250524_110223/0000/step3_NuGunE10_inMINIAODSIM_426.root\u000a
p124
aV/store/user/fnenna/NuGunE10_Phase2_PUstudies/140X_mcPhase2_14TeV_NuGun_MINIAOD_gemsegm/250524_110223/0000/step3_NuGunE10_inMINIAODSIM_898.root\u000a
p125
aV/store/user/fnenna/NuGunE10_Phase2_PUstudies/140X_mcPhase2_14TeV_NuGun_MINIAOD_gemsegm/250524_110223/0000/step3_NuGunE10_inMINIAODSIM_411.root\u000a
p126
aV/store/user/fnenna/NuGunE10_Phase2_PUstudies/140X_mcPhase2_14TeV_NuGun_MINIAOD_gemsegm/250524_110223/0000/step3_NuGunE10_inMINIAODSIM_826.root\u000a
p127
aV/store/user/fnenna/NuGunE10_Phase2_PUstudies/140X_mcPhase2_14TeV_NuGun_MINIAOD_gemsegm/250524_110223/0000/step3_NuGunE10_inMINIAODSIM_132.root\u000a
p128
aV/store/user/fnenna/NuGunE10_Phase2_PUstudies/140X_mcPhase2_14TeV_NuGun_MINIAOD_gemsegm/250524_110223/0000/step3_NuGunE10_inMINIAODSIM_711.root\u000a
p129
aV/store/user/fnenna/NuGunE10_Phase2_PUstudies/140X_mcPhase2_14TeV_NuGun_MINIAOD_gemsegm/250524_110223/0000/step3_NuGunE10_inMINIAODSIM_692.root\u000a
p130
aV/store/user/fnenna/NuGunE10_Phase2_PUstudies/140X_mcPhase2_14TeV_NuGun_MINIAOD_gemsegm/250524_110223/0000/step3_NuGunE10_inMINIAODSIM_208.root\u000a
p131
aV/store/user/fnenna/NuGunE10_Phase2_PUstudies/140X_mcPhase2_14TeV_NuGun_MINIAOD_gemsegm/250524_110223/0000/step3_NuGunE10_inMINIAODSIM_151.root\u000a
p132
aV/store/user/fnenna/NuGunE10_Phase2_PUstudies/140X_mcPhase2_14TeV_NuGun_MINIAOD_gemsegm/250524_110223/0000/step3_NuGunE10_inMINIAODSIM_983.root\u000a
p133
aV/store/user/fnenna/NuGunE10_Phase2_PUstudies/140X_mcPhase2_14TeV_NuGun_MINIAOD_gemsegm/250524_110223/0000/step3_NuGunE10_inMINIAODSIM_131.root\u000a
p134
aV/store/user/fnenna/NuGunE10_Phase2_PUstudies/140X_mcPhase2_14TeV_NuGun_MINIAOD_gemsegm/250524_110223/0000/step3_NuGunE10_inMINIAODSIM_572.root\u000a
p135
aV/store/user/fnenna/NuGunE10_Phase2_PUstudies/140X_mcPhase2_14TeV_NuGun_MINIAOD_gemsegm/250524_110223/0000/step3_NuGunE10_inMINIAODSIM_830.root\u000a
p136
aV/store/user/fnenna/NuGunE10_Phase2_PUstudies/140X_mcPhase2_14TeV_NuGun_MINIAOD_gemsegm/250524_110223/0000/step3_NuGunE10_inMINIAODSIM_799.root\u000a
p137
aV/store/user/fnenna/NuGunE10_Phase2_PUstudies/140X_mcPhase2_14TeV_NuGun_MINIAOD_gemsegm/250524_110223/0000/step3_NuGunE10_inMINIAODSIM_798.root\u000a
p138
aV/store/user/fnenna/NuGunE10_Phase2_PUstudies/140X_mcPhase2_14TeV_NuGun_MINIAOD_gemsegm/250524_110223/0000/step3_NuGunE10_inMINIAODSIM_235.root\u000a
p139
aV/store/user/fnenna/NuGunE10_Phase2_PUstudies/140X_mcPhase2_14TeV_NuGun_MINIAOD_gemsegm/250524_110223/0000/step3_NuGunE10_inMINIAODSIM_193.root\u000a
p140
aV/store/user/fnenna/NuGunE10_Phase2_PUstudies/140X_mcPhase2_14TeV_NuGun_MINIAOD_gemsegm/250524_110223/0000/step3_NuGunE10_inMINIAODSIM_674.root\u000a
p141
aV/store/user/fnenna/NuGunE10_Phase2_PUstudies/140X_mcPhase2_14TeV_NuGun_MINIAOD_gemsegm/250524_110223/0000/step3_NuGunE10_inMINIAODSIM_643.root\u000a
p142
aV/store/user/fnenna/NuGunE10_Phase2_PUstudies/140X_mcPhase2_14TeV_NuGun_MINIAOD_gemsegm/250524_110223/0000/step3_NuGunE10_inMINIAODSIM_942.root\u000a
p143
aV/store/user/fnenna/NuGunE10_Phase2_PUstudies/140X_mcPhase2_14TeV_NuGun_MINIAOD_gemsegm/250524_110223/0000/step3_NuGunE10_inMINIAODSIM_197.root\u000a
p144
aV/store/user/fnenna/NuGunE10_Phase2_PUstudies/140X_mcPhase2_14TeV_NuGun_MINIAOD_gemsegm/250524_110223/0000/step3_NuGunE10_inMINIAODSIM_511.root\u000a
p145
aV/store/user/fnenna/NuGunE10_Phase2_PUstudies/140X_mcPhase2_14TeV_NuGun_MINIAOD_gemsegm/250524_110223/0000/step3_NuGunE10_inMINIAODSIM_988.root\u000a
p146
aV/store/user/fnenna/NuGunE10_Phase2_PUstudies/140X_mcPhase2_14TeV_NuGun_MINIAOD_gemsegm/250524_110223/0000/step3_NuGunE10_inMINIAODSIM_125.root\u000a
p147
aV/store/user/fnenna/NuGunE10_Phase2_PUstudies/140X_mcPhase2_14TeV_NuGun_MINIAOD_gemsegm/250524_110223/0000/step3_NuGunE10_inMINIAODSIM_472.root\u000a
p148
aV/store/user/fnenna/NuGunE10_Phase2_PUstudies/140X_mcPhase2_14TeV_NuGun_MINIAOD_gemsegm/250524_110223/0000/step3_NuGunE10_inMINIAODSIM_105.root\u000a
p149
aV/store/user/fnenna/NuGunE10_Phase2_PUstudies/140X_mcPhase2_14TeV_NuGun_MINIAOD_gemsegm/250524_110223/0000/step3_NuGunE10_inMINIAODSIM_267.root\u000a
p150
aV/store/user/fnenna/NuGunE10_Phase2_PUstudies/140X_mcPhase2_14TeV_NuGun_MINIAOD_gemsegm/250524_110223/0000/step3_NuGunE10_inMINIAODSIM_350.root\u000a
p151
aV/store/user/fnenna/NuGunE10_Phase2_PUstudies/140X_mcPhase2_14TeV_NuGun_MINIAOD_gemsegm/250524_110223/0000/step3_NuGunE10_inMINIAODSIM_405.root\u000a
p152
aV/store/user/fnenna/NuGunE10_Phase2_PUstudies/140X_mcPhase2_14TeV_NuGun_MINIAOD_gemsegm/250524_110223/0000/step3_NuGunE10_inMINIAODSIM_394.root\u000a
p153
aV/store/user/fnenna/NuGunE10_Phase2_PUstudies/140X_mcPhase2_14TeV_NuGun_MINIAOD_gemsegm/250524_110223/0000/step3_NuGunE10_inMINIAODSIM_713.root\u000a
p154
aV/store/user/fnenna/NuGunE10_Phase2_PUstudies/140X_mcPhase2_14TeV_NuGun_MINIAOD_gemsegm/250524_110223/0000/step3_NuGunE10_inMINIAODSIM_515.root\u000a
p155
aV/store/user/fnenna/NuGunE10_Phase2_PUstudies/140X_mcPhase2_14TeV_NuGun_MINIAOD_gemsegm/250524_110223/0000/step3_NuGunE10_inMINIAODSIM_861.root\u000a
p156
aV/store/user/fnenna/NuGunE10_Phase2_PUstudies/140X_mcPhase2_14TeV_NuGun_MINIAOD_gemsegm/250524_110223/0000/step3_NuGunE10_inMINIAODSIM_374.root\u000a
p157
aV/store/user/fnenna/NuGunE10_Phase2_PUstudies/140X_mcPhase2_14TeV_NuGun_MINIAOD_gemsegm/250524_110223/0000/step3_NuGunE10_inMINIAODSIM_551.root\u000a
p158
aV/store/user/fnenna/NuGunE10_Phase2_PUstudies/140X_mcPhase2_14TeV_NuGun_MINIAOD_gemsegm/250524_110223/0000/step3_NuGunE10_inMINIAODSIM_428.root\u000a
p159
aV/store/user/fnenna/NuGunE10_Phase2_PUstudies/140X_mcPhase2_14TeV_NuGun_MINIAOD_gemsegm/250524_110223/0000/step3_NuGunE10_inMINIAODSIM_23.root\u000a
p160
aV/store/user/fnenna/NuGunE10_Phase2_PUstudies/140X_mcPhase2_14TeV_NuGun_MINIAOD_gemsegm/250524_110223/0000/step3_NuGunE10_inMINIAODSIM_200.root\u000a
p161
aV/store/user/fnenna/NuGunE10_Phase2_PUstudies/140X_mcPhase2_14TeV_NuGun_MINIAOD_gemsegm/250524_110223/0000/step3_NuGunE10_inMINIAODSIM_929.root\u000a
p162
aV/store/user/fnenna/NuGunE10_Phase2_PUstudies/140X_mcPhase2_14TeV_NuGun_MINIAOD_gemsegm/250524_110223/0000/step3_NuGunE10_inMINIAODSIM_553.root\u000a
p163
aV/store/user/fnenna/NuGunE10_Phase2_PUstudies/140X_mcPhase2_14TeV_NuGun_MINIAOD_gemsegm/250524_110223/0000/step3_NuGunE10_inMINIAODSIM_451.root\u000a
p164
aV/store/user/fnenna/NuGunE10_Phase2_PUstudies/140X_mcPhase2_14TeV_NuGun_MINIAOD_gemsegm/250524_110223/0000/step3_NuGunE10_inMINIAODSIM_207.root\u000a
p165
aV/store/user/fnenna/NuGunE10_Phase2_PUstudies/140X_mcPhase2_14TeV_NuGun_MINIAOD_gemsegm/250524_110223/0000/step3_NuGunE10_inMINIAODSIM_380.root\u000a
p166
aV/store/user/fnenna/NuGunE10_Phase2_PUstudies/140X_mcPhase2_14TeV_NuGun_MINIAOD_gemsegm/250524_110223/0000/step3_NuGunE10_inMINIAODSIM_514.root\u000a
p167
aV/store/user/fnenna/NuGunE10_Phase2_PUstudies/140X_mcPhase2_14TeV_NuGun_MINIAOD_gemsegm/250524_110223/0000/step3_NuGunE10_inMINIAODSIM_891.root\u000a
p168
aV/store/user/fnenna/NuGunE10_Phase2_PUstudies/140X_mcPhase2_14TeV_NuGun_MINIAOD_gemsegm/250524_110223/0000/step3_NuGunE10_inMINIAODSIM_270.root\u000a
p169
aV/store/user/fnenna/NuGunE10_Phase2_PUstudies/140X_mcPhase2_14TeV_NuGun_MINIAOD_gemsegm/250524_110223/0000/step3_NuGunE10_inMINIAODSIM_479.root\u000a
p170
aV/store/user/fnenna/NuGunE10_Phase2_PUstudies/140X_mcPhase2_14TeV_NuGun_MINIAOD_gemsegm/250524_110223/0000/step3_NuGunE10_inMINIAODSIM_486.root\u000a
p171
aV/store/user/fnenna/NuGunE10_Phase2_PUstudies/140X_mcPhase2_14TeV_NuGun_MINIAOD_gemsegm/250524_110223/0000/step3_NuGunE10_inMINIAODSIM_450.root\u000a
p172
aV/store/user/fnenna/NuGunE10_Phase2_PUstudies/140X_mcPhase2_14TeV_NuGun_MINIAOD_gemsegm/250524_110223/0000/step3_NuGunE10_inMINIAODSIM_242.root\u000a
p173
aV/store/user/fnenna/NuGunE10_Phase2_PUstudies/140X_mcPhase2_14TeV_NuGun_MINIAOD_gemsegm/250524_110223/0000/step3_NuGunE10_inMINIAODSIM_68.root\u000a
p174
aV/store/user/fnenna/NuGunE10_Phase2_PUstudies/140X_mcPhase2_14TeV_NuGun_MINIAOD_gemsegm/250524_110223/0000/step3_NuGunE10_inMINIAODSIM_659.root\u000a
p175
aV/store/user/fnenna/NuGunE10_Phase2_PUstudies/140X_mcPhase2_14TeV_NuGun_MINIAOD_gemsegm/250524_110223/0000/step3_NuGunE10_inMINIAODSIM_688.root\u000a
p176
aV/store/user/fnenna/NuGunE10_Phase2_PUstudies/140X_mcPhase2_14TeV_NuGun_MINIAOD_gemsegm/250524_110223/0000/step3_NuGunE10_inMINIAODSIM_846.root\u000a
p177
aV/store/user/fnenna/NuGunE10_Phase2_PUstudies/140X_mcPhase2_14TeV_NuGun_MINIAOD_gemsegm/250524_110223/0000/step3_NuGunE10_inMINIAODSIM_972.root\u000a
p178
aV/store/user/fnenna/NuGunE10_Phase2_PUstudies/140X_mcPhase2_14TeV_NuGun_MINIAOD_gemsegm/250524_110223/0000/step3_NuGunE10_inMINIAODSIM_949.root\u000a
p179
aV/store/user/fnenna/NuGunE10_Phase2_PUstudies/140X_mcPhase2_14TeV_NuGun_MINIAOD_gemsegm/250524_110223/0000/step3_NuGunE10_inMINIAODSIM_222.root\u000a
p180
aV/store/user/fnenna/NuGunE10_Phase2_PUstudies/140X_mcPhase2_14TeV_NuGun_MINIAOD_gemsegm/250524_110223/0000/step3_NuGunE10_inMINIAODSIM_342.root\u000a
p181
aV/store/user/fnenna/NuGunE10_Phase2_PUstudies/140X_mcPhase2_14TeV_NuGun_MINIAOD_gemsegm/250524_110223/0000/step3_NuGunE10_inMINIAODSIM_162.root\u000a
p182
aV/store/user/fnenna/NuGunE10_Phase2_PUstudies/140X_mcPhase2_14TeV_NuGun_MINIAOD_gemsegm/250524_110223/0000/step3_NuGunE10_inMINIAODSIM_999.root\u000a
p183
aV/store/user/fnenna/NuGunE10_Phase2_PUstudies/140X_mcPhase2_14TeV_NuGun_MINIAOD_gemsegm/250524_110223/0000/step3_NuGunE10_inMINIAODSIM_876.root\u000a
p184
aV/store/user/fnenna/NuGunE10_Phase2_PUstudies/140X_mcPhase2_14TeV_NuGun_MINIAOD_gemsegm/250524_110223/0000/step3_NuGunE10_inMINIAODSIM_670.root\u000a
p185
aV/store/user/fnenna/NuGunE10_Phase2_PUstudies/140X_mcPhase2_14TeV_NuGun_MINIAOD_gemsegm/250524_110223/0000/step3_NuGunE10_inMINIAODSIM_871.root\u000a
p186
aV/store/user/fnenna/NuGunE10_Phase2_PUstudies/140X_mcPhase2_14TeV_NuGun_MINIAOD_gemsegm/250524_110223/0000/step3_NuGunE10_inMINIAODSIM_20.root\u000a
p187
aV/store/user/fnenna/NuGunE10_Phase2_PUstudies/140X_mcPhase2_14TeV_NuGun_MINIAOD_gemsegm/250524_110223/0000/step3_NuGunE10_inMINIAODSIM_493.root\u000a
p188
aV/store/user/fnenna/NuGunE10_Phase2_PUstudies/140X_mcPhase2_14TeV_NuGun_MINIAOD_gemsegm/250524_110223/0000/step3_NuGunE10_inMINIAODSIM_152.root\u000a
p189
aV/store/user/fnenna/NuGunE10_Phase2_PUstudies/140X_mcPhase2_14TeV_NuGun_MINIAOD_gemsegm/250524_110223/0000/step3_NuGunE10_inMINIAODSIM_456.root\u000a
p190
aV/store/user/fnenna/NuGunE10_Phase2_PUstudies/140X_mcPhase2_14TeV_NuGun_MINIAOD_gemsegm/250524_110223/0000/step3_NuGunE10_inMINIAODSIM_492.root\u000a
p191
aV/store/user/fnenna/NuGunE10_Phase2_PUstudies/140X_mcPhase2_14TeV_NuGun_MINIAOD_gemsegm/250524_110223/0000/step3_NuGunE10_inMINIAODSIM_341.root\u000a
p192
aV/store/user/fnenna/NuGunE10_Phase2_PUstudies/140X_mcPhase2_14TeV_NuGun_MINIAOD_gemsegm/250524_110223/0000/step3_NuGunE10_inMINIAODSIM_938.root\u000a
p193
aV/store/user/fnenna/NuGunE10_Phase2_PUstudies/140X_mcPhase2_14TeV_NuGun_MINIAOD_gemsegm/250524_110223/0000/step3_NuGunE10_inMINIAODSIM_584.root\u000a
p194
aV/store/user/fnenna/NuGunE10_Phase2_PUstudies/140X_mcPhase2_14TeV_NuGun_MINIAOD_gemsegm/250524_110223/0000/step3_NuGunE10_inMINIAODSIM_5.root\u000a
p195
aV/store/user/fnenna/NuGunE10_Phase2_PUstudies/140X_mcPhase2_14TeV_NuGun_MINIAOD_gemsegm/250524_110223/0000/step3_NuGunE10_inMINIAODSIM_119.root\u000a
p196
aV/store/user/fnenna/NuGunE10_Phase2_PUstudies/140X_mcPhase2_14TeV_NuGun_MINIAOD_gemsegm/250524_110223/0000/step3_NuGunE10_inMINIAODSIM_698.root\u000a
p197
aV/store/user/fnenna/NuGunE10_Phase2_PUstudies/140X_mcPhase2_14TeV_NuGun_MINIAOD_gemsegm/250524_110223/0000/step3_NuGunE10_inMINIAODSIM_59.root\u000a
p198
aV/store/user/fnenna/NuGunE10_Phase2_PUstudies/140X_mcPhase2_14TeV_NuGun_MINIAOD_gemsegm/250524_110223/0000/step3_NuGunE10_inMINIAODSIM_415.root\u000a
p199
aV/store/user/fnenna/NuGunE10_Phase2_PUstudies/140X_mcPhase2_14TeV_NuGun_MINIAOD_gemsegm/250524_110223/0000/step3_NuGunE10_inMINIAODSIM_607.root\u000a
p200
aV/store/user/fnenna/NuGunE10_Phase2_PUstudies/140X_mcPhase2_14TeV_NuGun_MINIAOD_gemsegm/250524_110223/0000/step3_NuGunE10_inMINIAODSIM_908.root\u000a
p201
aV/store/user/fnenna/NuGunE10_Phase2_PUstudies/140X_mcPhase2_14TeV_NuGun_MINIAOD_gemsegm/250524_110223/0000/step3_NuGunE10_inMINIAODSIM_78.root\u000a
p202
aV/store/user/fnenna/NuGunE10_Phase2_PUstudies/140X_mcPhase2_14TeV_NuGun_MINIAOD_gemsegm/250524_110223/0000/step3_NuGunE10_inMINIAODSIM_814.root\u000a
p203
aV/store/user/fnenna/NuGunE10_Phase2_PUstudies/140X_mcPhase2_14TeV_NuGun_MINIAOD_gemsegm/250524_110223/0000/step3_NuGunE10_inMINIAODSIM_807.root\u000a
p204
aV/store/user/fnenna/NuGunE10_Phase2_PUstudies/140X_mcPhase2_14TeV_NuGun_MINIAOD_gemsegm/250524_110223/0000/step3_NuGunE10_inMINIAODSIM_495.root\u000a
p205
aV/store/user/fnenna/NuGunE10_Phase2_PUstudies/140X_mcPhase2_14TeV_NuGun_MINIAOD_gemsegm/250524_110223/0000/step3_NuGunE10_inMINIAODSIM_299.root\u000a
p206
aV/store/user/fnenna/NuGunE10_Phase2_PUstudies/140X_mcPhase2_14TeV_NuGun_MINIAOD_gemsegm/250524_110223/0000/step3_NuGunE10_inMINIAODSIM_297.root\u000a
p207
aV/store/user/fnenna/NuGunE10_Phase2_PUstudies/140X_mcPhase2_14TeV_NuGun_MINIAOD_gemsegm/250524_110223/0000/step3_NuGunE10_inMINIAODSIM_760.root\u000a
p208
aV/store/user/fnenna/NuGunE10_Phase2_PUstudies/140X_mcPhase2_14TeV_NuGun_MINIAOD_gemsegm/250524_110223/0000/step3_NuGunE10_inMINIAODSIM_590.root\u000a
p209
aV/store/user/fnenna/NuGunE10_Phase2_PUstudies/140X_mcPhase2_14TeV_NuGun_MINIAOD_gemsegm/250524_110223/0000/step3_NuGunE10_inMINIAODSIM_113.root\u000a
p210
aV/store/user/fnenna/NuGunE10_Phase2_PUstudies/140X_mcPhase2_14TeV_NuGun_MINIAOD_gemsegm/250524_110223/0000/step3_NuGunE10_inMINIAODSIM_663.root\u000a
p211
aV/store/user/fnenna/NuGunE10_Phase2_PUstudies/140X_mcPhase2_14TeV_NuGun_MINIAOD_gemsegm/250524_110223/0000/step3_NuGunE10_inMINIAODSIM_785.root\u000a
p212
aV/store/user/fnenna/NuGunE10_Phase2_PUstudies/140X_mcPhase2_14TeV_NuGun_MINIAOD_gemsegm/250524_110223/0000/step3_NuGunE10_inMINIAODSIM_636.root\u000a
p213
aV/store/user/fnenna/NuGunE10_Phase2_PUstudies/140X_mcPhase2_14TeV_NuGun_MINIAOD_gemsegm/250524_110223/0000/step3_NuGunE10_inMINIAODSIM_836.root\u000a
p214
aV/store/user/fnenna/NuGunE10_Phase2_PUstudies/140X_mcPhase2_14TeV_NuGun_MINIAOD_gemsegm/250524_110223/0000/step3_NuGunE10_inMINIAODSIM_419.root\u000a
p215
aV/store/user/fnenna/NuGunE10_Phase2_PUstudies/140X_mcPhase2_14TeV_NuGun_MINIAOD_gemsegm/250524_110223/0000/step3_NuGunE10_inMINIAODSIM_72.root\u000a
p216
aV/store/user/fnenna/NuGunE10_Phase2_PUstudies/140X_mcPhase2_14TeV_NuGun_MINIAOD_gemsegm/250524_110223/0000/step3_NuGunE10_inMINIAODSIM_719.root\u000a
p217
aV/store/user/fnenna/NuGunE10_Phase2_PUstudies/140X_mcPhase2_14TeV_NuGun_MINIAOD_gemsegm/250524_110223/0000/step3_NuGunE10_inMINIAODSIM_751.root\u000a
p218
aV/store/user/fnenna/NuGunE10_Phase2_PUstudies/140X_mcPhase2_14TeV_NuGun_MINIAOD_gemsegm/250524_110223/0000/step3_NuGunE10_inMINIAODSIM_508.root\u000a
p219
aV/store/user/fnenna/NuGunE10_Phase2_PUstudies/140X_mcPhase2_14TeV_NuGun_MINIAOD_gemsegm/250524_110223/0000/step3_NuGunE10_inMINIAODSIM_712.root\u000a
p220
aV/store/user/fnenna/NuGunE10_Phase2_PUstudies/140X_mcPhase2_14TeV_NuGun_MINIAOD_gemsegm/250524_110223/0000/step3_NuGunE10_inMINIAODSIM_628.root\u000a
p221
aV/store/user/fnenna/NuGunE10_Phase2_PUstudies/140X_mcPhase2_14TeV_NuGun_MINIAOD_gemsegm/250524_110223/0000/step3_NuGunE10_inMINIAODSIM_774.root\u000a
p222
aV/store/user/fnenna/NuGunE10_Phase2_PUstudies/140X_mcPhase2_14TeV_NuGun_MINIAOD_gemsegm/250524_110223/0000/step3_NuGunE10_inMINIAODSIM_665.root\u000a
p223
aV/store/user/fnenna/NuGunE10_Phase2_PUstudies/140X_mcPhase2_14TeV_NuGun_MINIAOD_gemsegm/250524_110223/0000/step3_NuGunE10_inMINIAODSIM_810.root\u000a
p224
aV/store/user/fnenna/NuGunE10_Phase2_PUstudies/140X_mcPhase2_14TeV_NuGun_MINIAOD_gemsegm/250524_110223/0000/step3_NuGunE10_inMINIAODSIM_525.root\u000a
p225
aV/store/user/fnenna/NuGunE10_Phase2_PUstudies/140X_mcPhase2_14TeV_NuGun_MINIAOD_gemsegm/250524_110223/0000/step3_NuGunE10_inMINIAODSIM_598.root\u000a
p226
aV/store/user/fnenna/NuGunE10_Phase2_PUstudies/140X_mcPhase2_14TeV_NuGun_MINIAOD_gemsegm/250524_110223/0000/step3_NuGunE10_inMINIAODSIM_605.root\u000a
p227
aV/store/user/fnenna/NuGunE10_Phase2_PUstudies/140X_mcPhase2_14TeV_NuGun_MINIAOD_gemsegm/250524_110223/0000/step3_NuGunE10_inMINIAODSIM_973.root\u000a
p228
aV/store/user/fnenna/NuGunE10_Phase2_PUstudies/140X_mcPhase2_14TeV_NuGun_MINIAOD_gemsegm/250524_110223/0000/step3_NuGunE10_inMINIAODSIM_933.root\u000a
p229
aV/store/user/fnenna/NuGunE10_Phase2_PUstudies/140X_mcPhase2_14TeV_NuGun_MINIAOD_gemsegm/250524_110223/0000/step3_NuGunE10_inMINIAODSIM_868.root\u000a
p230
aV/store/user/fnenna/NuGunE10_Phase2_PUstudies/140X_mcPhase2_14TeV_NuGun_MINIAOD_gemsegm/250524_110223/0000/step3_NuGunE10_inMINIAODSIM_336.root\u000a
p231
aV/store/user/fnenna/NuGunE10_Phase2_PUstudies/140X_mcPhase2_14TeV_NuGun_MINIAOD_gemsegm/250524_110223/0000/step3_NuGunE10_inMINIAODSIM_110.root\u000a
p232
aV/store/user/fnenna/NuGunE10_Phase2_PUstudies/140X_mcPhase2_14TeV_NuGun_MINIAOD_gemsegm/250524_110223/0000/step3_NuGunE10_inMINIAODSIM_953.root\u000a
p233
aV/store/user/fnenna/NuGunE10_Phase2_PUstudies/140X_mcPhase2_14TeV_NuGun_MINIAOD_gemsegm/250524_110223/0000/step3_NuGunE10_inMINIAODSIM_958.root\u000a
p234
aV/store/user/fnenna/NuGunE10_Phase2_PUstudies/140X_mcPhase2_14TeV_NuGun_MINIAOD_gemsegm/250524_110223/0000/step3_NuGunE10_inMINIAODSIM_967.root\u000a
p235
aV/store/user/fnenna/NuGunE10_Phase2_PUstudies/140X_mcPhase2_14TeV_NuGun_MINIAOD_gemsegm/250524_110223/0000/step3_NuGunE10_inMINIAODSIM_823.root\u000a
p236
aV/store/user/fnenna/NuGunE10_Phase2_PUstudies/140X_mcPhase2_14TeV_NuGun_MINIAOD_gemsegm/250524_110223/0000/step3_NuGunE10_inMINIAODSIM_610.root\u000a
p237
aV/store/user/fnenna/NuGunE10_Phase2_PUstudies/140X_mcPhase2_14TeV_NuGun_MINIAOD_gemsegm/250524_110223/0000/step3_NuGunE10_inMINIAODSIM_750.root\u000a
p238
aV/store/user/fnenna/NuGunE10_Phase2_PUstudies/140X_mcPhase2_14TeV_NuGun_MINIAOD_gemsegm/250524_110223/0000/step3_NuGunE10_inMINIAODSIM_537.root\u000a
p239
aV/store/user/fnenna/NuGunE10_Phase2_PUstudies/140X_mcPhase2_14TeV_NuGun_MINIAOD_gemsegm/250524_110223/0000/step3_NuGunE10_inMINIAODSIM_770.root\u000a
p240
aV/store/user/fnenna/NuGunE10_Phase2_PUstudies/140X_mcPhase2_14TeV_NuGun_MINIAOD_gemsegm/250524_110223/0000/step3_NuGunE10_inMINIAODSIM_541.root\u000a
p241
aV/store/user/fnenna/NuGunE10_Phase2_PUstudies/140X_mcPhase2_14TeV_NuGun_MINIAOD_gemsegm/250524_110223/0000/step3_NuGunE10_inMINIAODSIM_418.root\u000a
p242
aV/store/user/fnenna/NuGunE10_Phase2_PUstudies/140X_mcPhase2_14TeV_NuGun_MINIAOD_gemsegm/250524_110223/0000/step3_NuGunE10_inMINIAODSIM_136.root\u000a
p243
aV/store/user/fnenna/NuGunE10_Phase2_PUstudies/140X_mcPhase2_14TeV_NuGun_MINIAOD_gemsegm/250524_110223/0000/step3_NuGunE10_inMINIAODSIM_518.root\u000a
p244
aV/store/user/fnenna/NuGunE10_Phase2_PUstudies/140X_mcPhase2_14TeV_NuGun_MINIAOD_gemsegm/250524_110223/0000/step3_NuGunE10_inMINIAODSIM_275.root\u000a
p245
aV/store/user/fnenna/NuGunE10_Phase2_PUstudies/140X_mcPhase2_14TeV_NuGun_MINIAOD_gemsegm/250524_110223/0000/step3_NuGunE10_inMINIAODSIM_503.root\u000a
p246
aV/store/user/fnenna/NuGunE10_Phase2_PUstudies/140X_mcPhase2_14TeV_NuGun_MINIAOD_gemsegm/250524_110223/0000/step3_NuGunE10_inMINIAODSIM_386.root\u000a
p247
aV/store/user/fnenna/NuGunE10_Phase2_PUstudies/140X_mcPhase2_14TeV_NuGun_MINIAOD_gemsegm/250524_110223/0000/step3_NuGunE10_inMINIAODSIM_679.root\u000a
p248
aV/store/user/fnenna/NuGunE10_Phase2_PUstudies/140X_mcPhase2_14TeV_NuGun_MINIAOD_gemsegm/250524_110223/0000/step3_NuGunE10_inMINIAODSIM_330.root\u000a
p249
aV/store/user/fnenna/NuGunE10_Phase2_PUstudies/140X_mcPhase2_14TeV_NuGun_MINIAOD_gemsegm/250524_110223/0000/step3_NuGunE10_inMINIAODSIM_252.root\u000a
p250
aV/store/user/fnenna/NuGunE10_Phase2_PUstudies/140X_mcPhase2_14TeV_NuGun_MINIAOD_gemsegm/250524_110223/0000/step3_NuGunE10_inMINIAODSIM_170.root\u000a
p251
aV/store/user/fnenna/NuGunE10_Phase2_PUstudies/140X_mcPhase2_14TeV_NuGun_MINIAOD_gemsegm/250524_110223/0000/step3_NuGunE10_inMINIAODSIM_521.root\u000a
p252
aV/store/user/fnenna/NuGunE10_Phase2_PUstudies/140X_mcPhase2_14TeV_NuGun_MINIAOD_gemsegm/250524_110223/0000/step3_NuGunE10_inMINIAODSIM_316.root\u000a
p253
aV/store/user/fnenna/NuGunE10_Phase2_PUstudies/140X_mcPhase2_14TeV_NuGun_MINIAOD_gemsegm/250524_110223/0000/step3_NuGunE10_inMINIAODSIM_121.root\u000a
p254
aV/store/user/fnenna/NuGunE10_Phase2_PUstudies/140X_mcPhase2_14TeV_NuGun_MINIAOD_gemsegm/250524_110223/0000/step3_NuGunE10_inMINIAODSIM_261.root\u000a
p255
aV/store/user/fnenna/NuGunE10_Phase2_PUstudies/140X_mcPhase2_14TeV_NuGun_MINIAOD_gemsegm/250524_110223/0000/step3_NuGunE10_inMINIAODSIM_470.root\u000a
p256
aV/store/user/fnenna/NuGunE10_Phase2_PUstudies/140X_mcPhase2_14TeV_NuGun_MINIAOD_gemsegm/250524_110223/0000/step3_NuGunE10_inMINIAODSIM_321.root\u000a
p257
aV/store/user/fnenna/NuGunE10_Phase2_PUstudies/140X_mcPhase2_14TeV_NuGun_MINIAOD_gemsegm/250524_110223/0000/step3_NuGunE10_inMINIAODSIM_762.root\u000a
p258
aV/store/user/fnenna/NuGunE10_Phase2_PUstudies/140X_mcPhase2_14TeV_NuGun_MINIAOD_gemsegm/250524_110223/0000/step3_NuGunE10_inMINIAODSIM_884.root\u000a
p259
aV/store/user/fnenna/NuGunE10_Phase2_PUstudies/140X_mcPhase2_14TeV_NuGun_MINIAOD_gemsegm/250524_110223/0000/step3_NuGunE10_inMINIAODSIM_62.root\u000a
p260
aV/store/user/fnenna/NuGunE10_Phase2_PUstudies/140X_mcPhase2_14TeV_NuGun_MINIAOD_gemsegm/250524_110223/0000/step3_NuGunE10_inMINIAODSIM_635.root\u000a
p261
aV/store/user/fnenna/NuGunE10_Phase2_PUstudies/140X_mcPhase2_14TeV_NuGun_MINIAOD_gemsegm/250524_110223/0000/step3_NuGunE10_inMINIAODSIM_971.root\u000a
p262
aV/store/user/fnenna/NuGunE10_Phase2_PUstudies/140X_mcPhase2_14TeV_NuGun_MINIAOD_gemsegm/250524_110223/0000/step3_NuGunE10_inMINIAODSIM_766.root\u000a
p263
aV/store/user/fnenna/NuGunE10_Phase2_PUstudies/140X_mcPhase2_14TeV_NuGun_MINIAOD_gemsegm/250524_110223/0000/step3_NuGunE10_inMINIAODSIM_109.root\u000a
p264
aV/store/user/fnenna/NuGunE10_Phase2_PUstudies/140X_mcPhase2_14TeV_NuGun_MINIAOD_gemsegm/250524_110223/0000/step3_NuGunE10_inMINIAODSIM_209.root\u000a
p265
aV/store/user/fnenna/NuGunE10_Phase2_PUstudies/140X_mcPhase2_14TeV_NuGun_MINIAOD_gemsegm/250524_110223/0000/step3_NuGunE10_inMINIAODSIM_140.root\u000a
p266
aV/store/user/fnenna/NuGunE10_Phase2_PUstudies/140X_mcPhase2_14TeV_NuGun_MINIAOD_gemsegm/250524_110223/0000/step3_NuGunE10_inMINIAODSIM_483.root\u000a
p267
aV/store/user/fnenna/NuGunE10_Phase2_PUstudies/140X_mcPhase2_14TeV_NuGun_MINIAOD_gemsegm/250524_110223/0000/step3_NuGunE10_inMINIAODSIM_471.root\u000a
p268
aV/store/user/fnenna/NuGunE10_Phase2_PUstudies/140X_mcPhase2_14TeV_NuGun_MINIAOD_gemsegm/250524_110223/0000/step3_NuGunE10_inMINIAODSIM_794.root\u000a
p269
aV/store/user/fnenna/NuGunE10_Phase2_PUstudies/140X_mcPhase2_14TeV_NuGun_MINIAOD_gemsegm/250524_110223/0000/step3_NuGunE10_inMINIAODSIM_280.root\u000a
p270
aV/store/user/fnenna/NuGunE10_Phase2_PUstudies/140X_mcPhase2_14TeV_NuGun_MINIAOD_gemsegm/250524_110223/0000/step3_NuGunE10_inMINIAODSIM_324.root\u000a
p271
aV/store/user/fnenna/NuGunE10_Phase2_PUstudies/140X_mcPhase2_14TeV_NuGun_MINIAOD_gemsegm/250524_110223/0000/step3_NuGunE10_inMINIAODSIM_266.root\u000a
p272
aV/store/user/fnenna/NuGunE10_Phase2_PUstudies/140X_mcPhase2_14TeV_NuGun_MINIAOD_gemsegm/250524_110223/0000/step3_NuGunE10_inMINIAODSIM_763.root\u000a
p273
aV/store/user/fnenna/NuGunE10_Phase2_PUstudies/140X_mcPhase2_14TeV_NuGun_MINIAOD_gemsegm/250524_110223/0000/step3_NuGunE10_inMINIAODSIM_563.root\u000a
p274
aV/store/user/fnenna/NuGunE10_Phase2_PUstudies/140X_mcPhase2_14TeV_NuGun_MINIAOD_gemsegm/250524_110223/0000/step3_NuGunE10_inMINIAODSIM_98.root\u000a
p275
aV/store/user/fnenna/NuGunE10_Phase2_PUstudies/140X_mcPhase2_14TeV_NuGun_MINIAOD_gemsegm/250524_110223/0000/step3_NuGunE10_inMINIAODSIM_468.root\u000a
p276
aV/store/user/fnenna/NuGunE10_Phase2_PUstudies/140X_mcPhase2_14TeV_NuGun_MINIAOD_gemsegm/250524_110223/0000/step3_NuGunE10_inMINIAODSIM_384.root\u000a
p277
aV/store/user/fnenna/NuGunE10_Phase2_PUstudies/140X_mcPhase2_14TeV_NuGun_MINIAOD_gemsegm/250524_110223/0000/step3_NuGunE10_inMINIAODSIM_326.root\u000a
p278
aV/store/user/fnenna/NuGunE10_Phase2_PUstudies/140X_mcPhase2_14TeV_NuGun_MINIAOD_gemsegm/250524_110223/0000/step3_NuGunE10_inMINIAODSIM_808.root\u000a
p279
aV/store/user/fnenna/NuGunE10_Phase2_PUstudies/140X_mcPhase2_14TeV_NuGun_MINIAOD_gemsegm/250524_110223/0000/step3_NuGunE10_inMINIAODSIM_455.root\u000a
p280
aV/store/user/fnenna/NuGunE10_Phase2_PUstudies/140X_mcPhase2_14TeV_NuGun_MINIAOD_gemsegm/250524_110223/0000/step3_NuGunE10_inMINIAODSIM_58.root\u000a
p281
aV/store/user/fnenna/NuGunE10_Phase2_PUstudies/140X_mcPhase2_14TeV_NuGun_MINIAOD_gemsegm/250524_110223/0000/step3_NuGunE10_inMINIAODSIM_201.root\u000a
p282
aV/store/user/fnenna/NuGunE10_Phase2_PUstudies/140X_mcPhase2_14TeV_NuGun_MINIAOD_gemsegm/250524_110223/0000/step3_NuGunE10_inMINIAODSIM_67.root\u000a
p283
aV/store/user/fnenna/NuGunE10_Phase2_PUstudies/140X_mcPhase2_14TeV_NuGun_MINIAOD_gemsegm/250524_110223/0000/step3_NuGunE10_inMINIAODSIM_735.root\u000a
p284
aV/store/user/fnenna/NuGunE10_Phase2_PUstudies/140X_mcPhase2_14TeV_NuGun_MINIAOD_gemsegm/250524_110223/0000/step3_NuGunE10_inMINIAODSIM_677.root\u000a
p285
aV/store/user/fnenna/NuGunE10_Phase2_PUstudies/140X_mcPhase2_14TeV_NuGun_MINIAOD_gemsegm/250524_110223/0000/step3_NuGunE10_inMINIAODSIM_282.root\u000a
p286
aV/store/user/fnenna/NuGunE10_Phase2_PUstudies/140X_mcPhase2_14TeV_NuGun_MINIAOD_gemsegm/250524_110223/0000/step3_NuGunE10_inMINIAODSIM_546.root\u000a
p287
aV/store/user/fnenna/NuGunE10_Phase2_PUstudies/140X_mcPhase2_14TeV_NuGun_MINIAOD_gemsegm/250524_110223/0000/step3_NuGunE10_inMINIAODSIM_991.root\u000a
p288
aV/store/user/fnenna/NuGunE10_Phase2_PUstudies/140X_mcPhase2_14TeV_NuGun_MINIAOD_gemsegm/250524_110223/0000/step3_NuGunE10_inMINIAODSIM_138.root\u000a
p289
aV/store/user/fnenna/NuGunE10_Phase2_PUstudies/140X_mcPhase2_14TeV_NuGun_MINIAOD_gemsegm/250524_110223/0000/step3_NuGunE10_inMINIAODSIM_48.root\u000a
p290
aV/store/user/fnenna/NuGunE10_Phase2_PUstudies/140X_mcPhase2_14TeV_NuGun_MINIAOD_gemsegm/250524_110223/0000/step3_NuGunE10_inMINIAODSIM_579.root\u000a
p291
aV/store/user/fnenna/NuGunE10_Phase2_PUstudies/140X_mcPhase2_14TeV_NuGun_MINIAOD_gemsegm/250524_110223/0000/step3_NuGunE10_inMINIAODSIM_382.root\u000a
p292
aV/store/user/fnenna/NuGunE10_Phase2_PUstudies/140X_mcPhase2_14TeV_NuGun_MINIAOD_gemsegm/250524_110223/0000/step3_NuGunE10_inMINIAODSIM_134.root\u000a
p293
aV/store/user/fnenna/NuGunE10_Phase2_PUstudies/140X_mcPhase2_14TeV_NuGun_MINIAOD_gemsegm/250524_110223/0000/step3_NuGunE10_inMINIAODSIM_964.root\u000a
p294
aV/store/user/fnenna/NuGunE10_Phase2_PUstudies/140X_mcPhase2_14TeV_NuGun_MINIAOD_gemsegm/250524_110223/0000/step3_NuGunE10_inMINIAODSIM_403.root\u000a
p295
aV/store/user/fnenna/NuGunE10_Phase2_PUstudies/140X_mcPhase2_14TeV_NuGun_MINIAOD_gemsegm/250524_110223/0000/step3_NuGunE10_inMINIAODSIM_440.root\u000a
p296
aV/store/user/fnenna/NuGunE10_Phase2_PUstudies/140X_mcPhase2_14TeV_NuGun_MINIAOD_gemsegm/250524_110223/0000/step3_NuGunE10_inMINIAODSIM_401.root\u000a
p297
aV/store/user/fnenna/NuGunE10_Phase2_PUstudies/140X_mcPhase2_14TeV_NuGun_MINIAOD_gemsegm/250524_110223/0000/step3_NuGunE10_inMINIAODSIM_768.root\u000a
p298
aV/store/user/fnenna/NuGunE10_Phase2_PUstudies/140X_mcPhase2_14TeV_NuGun_MINIAOD_gemsegm/250524_110223/0000/step3_NuGunE10_inMINIAODSIM_300.root\u000a
p299
aV/store/user/fnenna/NuGunE10_Phase2_PUstudies/140X_mcPhase2_14TeV_NuGun_MINIAOD_gemsegm/250524_110223/0000/step3_NuGunE10_inMINIAODSIM_505.root\u000a
p300
aV/store/user/fnenna/NuGunE10_Phase2_PUstudies/140X_mcPhase2_14TeV_NuGun_MINIAOD_gemsegm/250524_110223/0000/step3_NuGunE10_inMINIAODSIM_250.root\u000a
p301
aV/store/user/fnenna/NuGunE10_Phase2_PUstudies/140X_mcPhase2_14TeV_NuGun_MINIAOD_gemsegm/250524_110223/0000/step3_NuGunE10_inMINIAODSIM_509.root\u000a
p302
aV/store/user/fnenna/NuGunE10_Phase2_PUstudies/140X_mcPhase2_14TeV_NuGun_MINIAOD_gemsegm/250524_110223/0000/step3_NuGunE10_inMINIAODSIM_585.root\u000a
p303
aV/store/user/fnenna/NuGunE10_Phase2_PUstudies/140X_mcPhase2_14TeV_NuGun_MINIAOD_gemsegm/250524_110223/0000/step3_NuGunE10_inMINIAODSIM_385.root\u000a
p304
aV/store/user/fnenna/NuGunE10_Phase2_PUstudies/140X_mcPhase2_14TeV_NuGun_MINIAOD_gemsegm/250524_110223/0000/step3_NuGunE10_inMINIAODSIM_445.root\u000a
p305
aV/store/user/fnenna/NuGunE10_Phase2_PUstudies/140X_mcPhase2_14TeV_NuGun_MINIAOD_gemsegm/250524_110223/0000/step3_NuGunE10_inMINIAODSIM_700.root\u000a
p306
aV/store/user/fnenna/NuGunE10_Phase2_PUstudies/140X_mcPhase2_14TeV_NuGun_MINIAOD_gemsegm/250524_110223/0000/step3_NuGunE10_inMINIAODSIM_218.root\u000a
p307
aV/store/user/fnenna/NuGunE10_Phase2_PUstudies/140X_mcPhase2_14TeV_NuGun_MINIAOD_gemsegm/250524_110223/0000/step3_NuGunE10_inMINIAODSIM_391.root\u000a
p308
aV/store/user/fnenna/NuGunE10_Phase2_PUstudies/140X_mcPhase2_14TeV_NuGun_MINIAOD_gemsegm/250524_110223/0000/step3_NuGunE10_inMINIAODSIM_475.root\u000a
p309
aV/store/user/fnenna/NuGunE10_Phase2_PUstudies/140X_mcPhase2_14TeV_NuGun_MINIAOD_gemsegm/250524_110223/0000/step3_NuGunE10_inMINIAODSIM_296.root\u000a
p310
aV/store/user/fnenna/NuGunE10_Phase2_PUstudies/140X_mcPhase2_14TeV_NuGun_MINIAOD_gemsegm/250524_110223/0000/step3_NuGunE10_inMINIAODSIM_989.root\u000a
p311
aV/store/user/fnenna/NuGunE10_Phase2_PUstudies/140X_mcPhase2_14TeV_NuGun_MINIAOD_gemsegm/250524_110223/0000/step3_NuGunE10_inMINIAODSIM_899.root\u000a
p312
aV/store/user/fnenna/NuGunE10_Phase2_PUstudies/140X_mcPhase2_14TeV_NuGun_MINIAOD_gemsegm/250524_110223/0000/step3_NuGunE10_inMINIAODSIM_61.root\u000a
p313
aV/store/user/fnenna/NuGunE10_Phase2_PUstudies/140X_mcPhase2_14TeV_NuGun_MINIAOD_gemsegm/250524_110223/0000/step3_NuGunE10_inMINIAODSIM_413.root\u000a
p314
aV/store/user/fnenna/NuGunE10_Phase2_PUstudies/140X_mcPhase2_14TeV_NuGun_MINIAOD_gemsegm/250524_110223/0000/step3_NuGunE10_inMINIAODSIM_623.root\u000a
p315
aV/store/user/fnenna/NuGunE10_Phase2_PUstudies/140X_mcPhase2_14TeV_NuGun_MINIAOD_gemsegm/250524_110223/0000/step3_NuGunE10_inMINIAODSIM_228.root\u000a
p316
aV/store/user/fnenna/NuGunE10_Phase2_PUstudies/140X_mcPhase2_14TeV_NuGun_MINIAOD_gemsegm/250524_110223/0000/step3_NuGunE10_inMINIAODSIM_649.root\u000a
p317
aV/store/user/fnenna/NuGunE10_Phase2_PUstudies/140X_mcPhase2_14TeV_NuGun_MINIAOD_gemsegm/250524_110223/0000/step3_NuGunE10_inMINIAODSIM_613.root\u000a
p318
aV/store/user/fnenna/NuGunE10_Phase2_PUstudies/140X_mcPhase2_14TeV_NuGun_MINIAOD_gemsegm/250524_110223/0000/step3_NuGunE10_inMINIAODSIM_158.root\u000a
p319
aV/store/user/fnenna/NuGunE10_Phase2_PUstudies/140X_mcPhase2_14TeV_NuGun_MINIAOD_gemsegm/250524_110223/0000/step3_NuGunE10_inMINIAODSIM_775.root\u000a
p320
aV/store/user/fnenna/NuGunE10_Phase2_PUstudies/140X_mcPhase2_14TeV_NuGun_MINIAOD_gemsegm/250524_110223/0000/step3_NuGunE10_inMINIAODSIM_257.root\u000a
p321
aV/store/user/fnenna/NuGunE10_Phase2_PUstudies/140X_mcPhase2_14TeV_NuGun_MINIAOD_gemsegm/250524_110223/0000/step3_NuGunE10_inMINIAODSIM_139.root\u000a
p322
aV/store/user/fnenna/NuGunE10_Phase2_PUstudies/140X_mcPhase2_14TeV_NuGun_MINIAOD_gemsegm/250524_110223/0000/step3_NuGunE10_inMINIAODSIM_371.root\u000a
p323
aV/store/user/fnenna/NuGunE10_Phase2_PUstudies/140X_mcPhase2_14TeV_NuGun_MINIAOD_gemsegm/250524_110223/0000/step3_NuGunE10_inMINIAODSIM_746.root\u000a
p324
aV/store/user/fnenna/NuGunE10_Phase2_PUstudies/140X_mcPhase2_14TeV_NuGun_MINIAOD_gemsegm/250524_110223/0000/step3_NuGunE10_inMINIAODSIM_678.root\u000a
p325
aV/store/user/fnenna/NuGunE10_Phase2_PUstudies/140X_mcPhase2_14TeV_NuGun_MINIAOD_gemsegm/250524_110223/0000/step3_NuGunE10_inMINIAODSIM_189.root\u000a
p326
aV/store/user/fnenna/NuGunE10_Phase2_PUstudies/140X_mcPhase2_14TeV_NuGun_MINIAOD_gemsegm/250524_110223/0000/step3_NuGunE10_inMINIAODSIM_414.root\u000a
p327
aV/store/user/fnenna/NuGunE10_Phase2_PUstudies/140X_mcPhase2_14TeV_NuGun_MINIAOD_gemsegm/250524_110223/0000/step3_NuGunE10_inMINIAODSIM_461.root\u000a
p328
aV/store/user/fnenna/NuGunE10_Phase2_PUstudies/140X_mcPhase2_14TeV_NuGun_MINIAOD_gemsegm/250524_110223/0000/step3_NuGunE10_inMINIAODSIM_91.root\u000a
p329
aV/store/user/fnenna/NuGunE10_Phase2_PUstudies/140X_mcPhase2_14TeV_NuGun_MINIAOD_gemsegm/250524_110223/0000/step3_NuGunE10_inMINIAODSIM_994.root\u000a
p330
aV/store/user/fnenna/NuGunE10_Phase2_PUstudies/140X_mcPhase2_14TeV_NuGun_MINIAOD_gemsegm/250524_110223/0000/step3_NuGunE10_inMINIAODSIM_124.root\u000a
p331
aV/store/user/fnenna/NuGunE10_Phase2_PUstudies/140X_mcPhase2_14TeV_NuGun_MINIAOD_gemsegm/250524_110223/0000/step3_NuGunE10_inMINIAODSIM_984.root\u000a
p332
aV/store/user/fnenna/NuGunE10_Phase2_PUstudies/140X_mcPhase2_14TeV_NuGun_MINIAOD_gemsegm/250524_110223/0000/step3_NuGunE10_inMINIAODSIM_289.root\u000a
p333
aV/store/user/fnenna/NuGunE10_Phase2_PUstudies/140X_mcPhase2_14TeV_NuGun_MINIAOD_gemsegm/250524_110223/0000/step3_NuGunE10_inMINIAODSIM_930.root\u000a
p334
aV/store/user/fnenna/NuGunE10_Phase2_PUstudies/140X_mcPhase2_14TeV_NuGun_MINIAOD_gemsegm/250524_110223/0000/step3_NuGunE10_inMINIAODSIM_725.root\u000a
p335
aV/store/user/fnenna/NuGunE10_Phase2_PUstudies/140X_mcPhase2_14TeV_NuGun_MINIAOD_gemsegm/250524_110223/0000/step3_NuGunE10_inMINIAODSIM_334.root\u000a
p336
aV/store/user/fnenna/NuGunE10_Phase2_PUstudies/140X_mcPhase2_14TeV_NuGun_MINIAOD_gemsegm/250524_110223/0000/step3_NuGunE10_inMINIAODSIM_749.root\u000a
p337
aV/store/user/fnenna/NuGunE10_Phase2_PUstudies/140X_mcPhase2_14TeV_NuGun_MINIAOD_gemsegm/250524_110223/0000/step3_NuGunE10_inMINIAODSIM_8.root\u000a
p338
aV/store/user/fnenna/NuGunE10_Phase2_PUstudies/140X_mcPhase2_14TeV_NuGun_MINIAOD_gemsegm/250524_110223/0000/step3_NuGunE10_inMINIAODSIM_32.root\u000a
p339
aV/store/user/fnenna/NuGunE10_Phase2_PUstudies/140X_mcPhase2_14TeV_NuGun_MINIAOD_gemsegm/250524_110223/0000/step3_NuGunE10_inMINIAODSIM_168.root\u000a
p340
aV/store/user/fnenna/NuGunE10_Phase2_PUstudies/140X_mcPhase2_14TeV_NuGun_MINIAOD_gemsegm/250524_110223/0000/step3_NuGunE10_inMINIAODSIM_129.root\u000a
p341
aV/store/user/fnenna/NuGunE10_Phase2_PUstudies/140X_mcPhase2_14TeV_NuGun_MINIAOD_gemsegm/250524_110223/0000/step3_NuGunE10_inMINIAODSIM_103.root\u000a
p342
aV/store/user/fnenna/NuGunE10_Phase2_PUstudies/140X_mcPhase2_14TeV_NuGun_MINIAOD_gemsegm/250524_110223/0000/step3_NuGunE10_inMINIAODSIM_274.root\u000a
p343
aV/store/user/fnenna/NuGunE10_Phase2_PUstudies/140X_mcPhase2_14TeV_NuGun_MINIAOD_gemsegm/250524_110223/0000/step3_NuGunE10_inMINIAODSIM_952.root\u000a
p344
aV/store/user/fnenna/NuGunE10_Phase2_PUstudies/140X_mcPhase2_14TeV_NuGun_MINIAOD_gemsegm/250524_110223/0000/step3_NuGunE10_inMINIAODSIM_146.root\u000a
p345
aV/store/user/fnenna/NuGunE10_Phase2_PUstudies/140X_mcPhase2_14TeV_NuGun_MINIAOD_gemsegm/250524_110223/0000/step3_NuGunE10_inMINIAODSIM_793.root\u000a
p346
aV/store/user/fnenna/NuGunE10_Phase2_PUstudies/140X_mcPhase2_14TeV_NuGun_MINIAOD_gemsegm/250524_110223/0000/step3_NuGunE10_inMINIAODSIM_538.root\u000a
p347
aV/store/user/fnenna/NuGunE10_Phase2_PUstudies/140X_mcPhase2_14TeV_NuGun_MINIAOD_gemsegm/250524_110223/0000/step3_NuGunE10_inMINIAODSIM_837.root\u000a
p348
aV/store/user/fnenna/NuGunE10_Phase2_PUstudies/140X_mcPhase2_14TeV_NuGun_MINIAOD_gemsegm/250524_110223/0000/step3_NuGunE10_inMINIAODSIM_600.root\u000a
p349
aV/store/user/fnenna/NuGunE10_Phase2_PUstudies/140X_mcPhase2_14TeV_NuGun_MINIAOD_gemsegm/250524_110223/0000/step3_NuGunE10_inMINIAODSIM_400.root\u000a
p350
aV/store/user/fnenna/NuGunE10_Phase2_PUstudies/140X_mcPhase2_14TeV_NuGun_MINIAOD_gemsegm/250524_110223/0000/step3_NuGunE10_inMINIAODSIM_687.root\u000a
p351
aV/store/user/fnenna/NuGunE10_Phase2_PUstudies/140X_mcPhase2_14TeV_NuGun_MINIAOD_gemsegm/250524_110223/0000/step3_NuGunE10_inMINIAODSIM_533.root\u000a
p352
aV/store/user/fnenna/NuGunE10_Phase2_PUstudies/140X_mcPhase2_14TeV_NuGun_MINIAOD_gemsegm/250524_110223/0000/step3_NuGunE10_inMINIAODSIM_202.root\u000a
p353
aV/store/user/fnenna/NuGunE10_Phase2_PUstudies/140X_mcPhase2_14TeV_NuGun_MINIAOD_gemsegm/250524_110223/0000/step3_NuGunE10_inMINIAODSIM_707.root\u000a
p354
aV/store/user/fnenna/NuGunE10_Phase2_PUstudies/140X_mcPhase2_14TeV_NuGun_MINIAOD_gemsegm/250524_110223/0000/step3_NuGunE10_inMINIAODSIM_221.root\u000a
p355
aV/store/user/fnenna/NuGunE10_Phase2_PUstudies/140X_mcPhase2_14TeV_NuGun_MINIAOD_gemsegm/250524_110223/0000/step3_NuGunE10_inMINIAODSIM_9.root\u000a
p356
aV/store/user/fnenna/NuGunE10_Phase2_PUstudies/140X_mcPhase2_14TeV_NuGun_MINIAOD_gemsegm/250524_110223/0000/step3_NuGunE10_inMINIAODSIM_591.root\u000a
p357
aV/store/user/fnenna/NuGunE10_Phase2_PUstudies/140X_mcPhase2_14TeV_NuGun_MINIAOD_gemsegm/250524_110223/0000/step3_NuGunE10_inMINIAODSIM_875.root\u000a
p358
aV/store/user/fnenna/NuGunE10_Phase2_PUstudies/140X_mcPhase2_14TeV_NuGun_MINIAOD_gemsegm/250524_110223/0000/step3_NuGunE10_inMINIAODSIM_424.root\u000a
p359
aV/store/user/fnenna/NuGunE10_Phase2_PUstudies/140X_mcPhase2_14TeV_NuGun_MINIAOD_gemsegm/250524_110223/0000/step3_NuGunE10_inMINIAODSIM_10.root\u000a
p360
aV/store/user/fnenna/NuGunE10_Phase2_PUstudies/140X_mcPhase2_14TeV_NuGun_MINIAOD_gemsegm/250524_110223/0000/step3_NuGunE10_inMINIAODSIM_369.root\u000a
p361
aV/store/user/fnenna/NuGunE10_Phase2_PUstudies/140X_mcPhase2_14TeV_NuGun_MINIAOD_gemsegm/250524_110223/0000/step3_NuGunE10_inMINIAODSIM_263.root\u000a
p362
aV/store/user/fnenna/NuGunE10_Phase2_PUstudies/140X_mcPhase2_14TeV_NuGun_MINIAOD_gemsegm/250524_110223/0000/step3_NuGunE10_inMINIAODSIM_669.root\u000a
p363
aV/store/user/fnenna/NuGunE10_Phase2_PUstudies/140X_mcPhase2_14TeV_NuGun_MINIAOD_gemsegm/250524_110223/0000/step3_NuGunE10_inMINIAODSIM_939.root\u000a
p364
aV/store/user/fnenna/NuGunE10_Phase2_PUstudies/140X_mcPhase2_14TeV_NuGun_MINIAOD_gemsegm/250524_110223/0000/step3_NuGunE10_inMINIAODSIM_893.root\u000a
p365
aV/store/user/fnenna/NuGunE10_Phase2_PUstudies/140X_mcPhase2_14TeV_NuGun_MINIAOD_gemsegm/250524_110223/0000/step3_NuGunE10_inMINIAODSIM_43.root\u000a
p366
aV/store/user/fnenna/NuGunE10_Phase2_PUstudies/140X_mcPhase2_14TeV_NuGun_MINIAOD_gemsegm/250524_110223/0000/step3_NuGunE10_inMINIAODSIM_779.root\u000a
p367
aV/store/user/fnenna/NuGunE10_Phase2_PUstudies/140X_mcPhase2_14TeV_NuGun_MINIAOD_gemsegm/250524_110223/0000/step3_NuGunE10_inMINIAODSIM_159.root\u000a
p368
aV/store/user/fnenna/NuGunE10_Phase2_PUstudies/140X_mcPhase2_14TeV_NuGun_MINIAOD_gemsegm/250524_110223/0000/step3_NuGunE10_inMINIAODSIM_567.root\u000a
p369
aV/store/user/fnenna/NuGunE10_Phase2_PUstudies/140X_mcPhase2_14TeV_NuGun_MINIAOD_gemsegm/250524_110223/0000/step3_NuGunE10_inMINIAODSIM_482.root\u000a
p370
aV/store/user/fnenna/NuGunE10_Phase2_PUstudies/140X_mcPhase2_14TeV_NuGun_MINIAOD_gemsegm/250524_110223/0000/step3_NuGunE10_inMINIAODSIM_668.root\u000a
p371
aV/store/user/fnenna/NuGunE10_Phase2_PUstudies/140X_mcPhase2_14TeV_NuGun_MINIAOD_gemsegm/250524_110223/0000/step3_NuGunE10_inMINIAODSIM_704.root\u000a
p372
aV/store/user/fnenna/NuGunE10_Phase2_PUstudies/140X_mcPhase2_14TeV_NuGun_MINIAOD_gemsegm/250524_110223/0000/step3_NuGunE10_inMINIAODSIM_631.root\u000a
p373
aV/store/user/fnenna/NuGunE10_Phase2_PUstudies/140X_mcPhase2_14TeV_NuGun_MINIAOD_gemsegm/250524_110223/0000/step3_NuGunE10_inMINIAODSIM_736.root\u000a
p374
aV/store/user/fnenna/NuGunE10_Phase2_PUstudies/140X_mcPhase2_14TeV_NuGun_MINIAOD_gemsegm/250524_110223/0000/step3_NuGunE10_inMINIAODSIM_529.root\u000a
p375
aV/store/user/fnenna/NuGunE10_Phase2_PUstudies/140X_mcPhase2_14TeV_NuGun_MINIAOD_gemsegm/250524_110223/0000/step3_NuGunE10_inMINIAODSIM_453.root\u000a
p376
aV/store/user/fnenna/NuGunE10_Phase2_PUstudies/140X_mcPhase2_14TeV_NuGun_MINIAOD_gemsegm/250524_110223/0000/step3_NuGunE10_inMINIAODSIM_752.root\u000a
p377
aV/store/user/fnenna/NuGunE10_Phase2_PUstudies/140X_mcPhase2_14TeV_NuGun_MINIAOD_gemsegm/250524_110223/0000/step3_NuGunE10_inMINIAODSIM_795.root\u000a
p378
aV/store/user/fnenna/NuGunE10_Phase2_PUstudies/140X_mcPhase2_14TeV_NuGun_MINIAOD_gemsegm/250524_110223/0000/step3_NuGunE10_inMINIAODSIM_175.root\u000a
p379
aV/store/user/fnenna/NuGunE10_Phase2_PUstudies/140X_mcPhase2_14TeV_NuGun_MINIAOD_gemsegm/250524_110223/0000/step3_NuGunE10_inMINIAODSIM_423.root\u000a
p380
aV/store/user/fnenna/NuGunE10_Phase2_PUstudies/140X_mcPhase2_14TeV_NuGun_MINIAOD_gemsegm/250524_110223/0000/step3_NuGunE10_inMINIAODSIM_764.root\u000a
p381
aV/store/user/fnenna/NuGunE10_Phase2_PUstudies/140X_mcPhase2_14TeV_NuGun_MINIAOD_gemsegm/250524_110223/0000/step3_NuGunE10_inMINIAODSIM_449.root\u000a
p382
aV/store/user/fnenna/NuGunE10_Phase2_PUstudies/140X_mcPhase2_14TeV_NuGun_MINIAOD_gemsegm/250524_110223/0000/step3_NuGunE10_inMINIAODSIM_320.root\u000a
p383
aV/store/user/fnenna/NuGunE10_Phase2_PUstudies/140X_mcPhase2_14TeV_NuGun_MINIAOD_gemsegm/250524_110223/0000/step3_NuGunE10_inMINIAODSIM_998.root\u000a
p384
aV/store/user/fnenna/NuGunE10_Phase2_PUstudies/140X_mcPhase2_14TeV_NuGun_MINIAOD_gemsegm/250524_110223/0000/step3_NuGunE10_inMINIAODSIM_444.root\u000a
p385
aV/store/user/fnenna/NuGunE10_Phase2_PUstudies/140X_mcPhase2_14TeV_NuGun_MINIAOD_gemsegm/250524_110223/0000/step3_NuGunE10_inMINIAODSIM_253.root\u000a
p386
aV/store/user/fnenna/NuGunE10_Phase2_PUstudies/140X_mcPhase2_14TeV_NuGun_MINIAOD_gemsegm/250524_110223/0000/step3_NuGunE10_inMINIAODSIM_169.root\u000a
p387
aV/store/user/fnenna/NuGunE10_Phase2_PUstudies/140X_mcPhase2_14TeV_NuGun_MINIAOD_gemsegm/250524_110223/0000/step3_NuGunE10_inMINIAODSIM_638.root\u000a
p388
aV/store/user/fnenna/NuGunE10_Phase2_PUstudies/140X_mcPhase2_14TeV_NuGun_MINIAOD_gemsegm/250524_110223/0000/step3_NuGunE10_inMINIAODSIM_112.root\u000a
p389
aV/store/user/fnenna/NuGunE10_Phase2_PUstudies/140X_mcPhase2_14TeV_NuGun_MINIAOD_gemsegm/250524_110223/0000/step3_NuGunE10_inMINIAODSIM_489.root\u000a
p390
aV/store/user/fnenna/NuGunE10_Phase2_PUstudies/140X_mcPhase2_14TeV_NuGun_MINIAOD_gemsegm/250524_110223/0000/step3_NuGunE10_inMINIAODSIM_122.root\u000a
p391
aV/store/user/fnenna/NuGunE10_Phase2_PUstudies/140X_mcPhase2_14TeV_NuGun_MINIAOD_gemsegm/250524_110223/0000/step3_NuGunE10_inMINIAODSIM_13.root\u000a
p392
aV/store/user/fnenna/NuGunE10_Phase2_PUstudies/140X_mcPhase2_14TeV_NuGun_MINIAOD_gemsegm/250524_110223/0000/step3_NuGunE10_inMINIAODSIM_269.root\u000a
p393
aV/store/user/fnenna/NuGunE10_Phase2_PUstudies/140X_mcPhase2_14TeV_NuGun_MINIAOD_gemsegm/250524_110223/0000/step3_NuGunE10_inMINIAODSIM_425.root\u000a
p394
aV/store/user/fnenna/NuGunE10_Phase2_PUstudies/140X_mcPhase2_14TeV_NuGun_MINIAOD_gemsegm/250524_110223/0000/step3_NuGunE10_inMINIAODSIM_694.root\u000a
p395
aV/store/user/fnenna/NuGunE10_Phase2_PUstudies/140X_mcPhase2_14TeV_NuGun_MINIAOD_gemsegm/250524_110223/0000/step3_NuGunE10_inMINIAODSIM_114.root\u000a
p396
aV/store/user/fnenna/NuGunE10_Phase2_PUstudies/140X_mcPhase2_14TeV_NuGun_MINIAOD_gemsegm/250524_110223/0000/step3_NuGunE10_inMINIAODSIM_885.root\u000a
p397
aV/store/user/fnenna/NuGunE10_Phase2_PUstudies/140X_mcPhase2_14TeV_NuGun_MINIAOD_gemsegm/250524_110223/0000/step3_NuGunE10_inMINIAODSIM_226.root\u000a
p398
aV/store/user/fnenna/NuGunE10_Phase2_PUstudies/140X_mcPhase2_14TeV_NuGun_MINIAOD_gemsegm/250524_110223/0000/step3_NuGunE10_inMINIAODSIM_730.root\u000a
p399
aV/store/user/fnenna/NuGunE10_Phase2_PUstudies/140X_mcPhase2_14TeV_NuGun_MINIAOD_gemsegm/250524_110223/0000/step3_NuGunE10_inMINIAODSIM_241.root\u000a
p400
aV/store/user/fnenna/NuGunE10_Phase2_PUstudies/140X_mcPhase2_14TeV_NuGun_MINIAOD_gemsegm/250524_110223/0000/step3_NuGunE10_inMINIAODSIM_771.root\u000a
p401
aV/store/user/fnenna/NuGunE10_Phase2_PUstudies/140X_mcPhase2_14TeV_NuGun_MINIAOD_gemsegm/250524_110223/0000/step3_NuGunE10_inMINIAODSIM_943.root\u000a
p402
aV/store/user/fnenna/NuGunE10_Phase2_PUstudies/140X_mcPhase2_14TeV_NuGun_MINIAOD_gemsegm/250524_110223/0000/step3_NuGunE10_inMINIAODSIM_156.root\u000a
p403
aV/store/user/fnenna/NuGunE10_Phase2_PUstudies/140X_mcPhase2_14TeV_NuGun_MINIAOD_gemsegm/250524_110223/0000/step3_NuGunE10_inMINIAODSIM_624.root\u000a
p404
aV/store/user/fnenna/NuGunE10_Phase2_PUstudies/140X_mcPhase2_14TeV_NuGun_MINIAOD_gemsegm/250524_110223/0000/step3_NuGunE10_inMINIAODSIM_889.root\u000a
p405
aV/store/user/fnenna/NuGunE10_Phase2_PUstudies/140X_mcPhase2_14TeV_NuGun_MINIAOD_gemsegm/250524_110223/0000/step3_NuGunE10_inMINIAODSIM_41.root\u000a
p406
aV/store/user/fnenna/NuGunE10_Phase2_PUstudies/140X_mcPhase2_14TeV_NuGun_MINIAOD_gemsegm/250524_110223/0000/step3_NuGunE10_inMINIAODSIM_348.root\u000a
p407
aV/store/user/fnenna/NuGunE10_Phase2_PUstudies/140X_mcPhase2_14TeV_NuGun_MINIAOD_gemsegm/250524_110223/0000/step3_NuGunE10_inMINIAODSIM_870.root\u000a
p408
aV/store/user/fnenna/NuGunE10_Phase2_PUstudies/140X_mcPhase2_14TeV_NuGun_MINIAOD_gemsegm/250524_110223/0000/step3_NuGunE10_inMINIAODSIM_937.root\u000a
p409
aV/store/user/fnenna/NuGunE10_Phase2_PUstudies/140X_mcPhase2_14TeV_NuGun_MINIAOD_gemsegm/250524_110223/0000/step3_NuGunE10_inMINIAODSIM_39.root\u000a
p410
aV/store/user/fnenna/NuGunE10_Phase2_PUstudies/140X_mcPhase2_14TeV_NuGun_MINIAOD_gemsegm/250524_110223/0000/step3_NuGunE10_inMINIAODSIM_633.root\u000a
p411
aV/store/user/fnenna/NuGunE10_Phase2_PUstudies/140X_mcPhase2_14TeV_NuGun_MINIAOD_gemsegm/250524_110223/0000/step3_NuGunE10_inMINIAODSIM_959.root\u000a
p412
aV/store/user/fnenna/NuGunE10_Phase2_PUstudies/140X_mcPhase2_14TeV_NuGun_MINIAOD_gemsegm/250524_110223/0000/step3_NuGunE10_inMINIAODSIM_517.root\u000a
p413
aV/store/user/fnenna/NuGunE10_Phase2_PUstudies/140X_mcPhase2_14TeV_NuGun_MINIAOD_gemsegm/250524_110223/0000/step3_NuGunE10_inMINIAODSIM_115.root\u000a
p414
aV/store/user/fnenna/NuGunE10_Phase2_PUstudies/140X_mcPhase2_14TeV_NuGun_MINIAOD_gemsegm/250524_110223/0000/step3_NuGunE10_inMINIAODSIM_743.root\u000a
p415
aV/store/user/fnenna/NuGunE10_Phase2_PUstudies/140X_mcPhase2_14TeV_NuGun_MINIAOD_gemsegm/250524_110223/0000/step3_NuGunE10_inMINIAODSIM_42.root\u000a
p416
aV/store/user/fnenna/NuGunE10_Phase2_PUstudies/140X_mcPhase2_14TeV_NuGun_MINIAOD_gemsegm/250524_110223/0000/step3_NuGunE10_inMINIAODSIM_935.root\u000a
p417
aV/store/user/fnenna/NuGunE10_Phase2_PUstudies/140X_mcPhase2_14TeV_NuGun_MINIAOD_gemsegm/250524_110223/0000/step3_NuGunE10_inMINIAODSIM_797.root\u000a
p418
aV/store/user/fnenna/NuGunE10_Phase2_PUstudies/140X_mcPhase2_14TeV_NuGun_MINIAOD_gemsegm/250524_110223/0000/step3_NuGunE10_inMINIAODSIM_867.root\u000a
p419
aV/store/user/fnenna/NuGunE10_Phase2_PUstudies/140X_mcPhase2_14TeV_NuGun_MINIAOD_gemsegm/250524_110223/0000/step3_NuGunE10_inMINIAODSIM_849.root\u000a
p420
aV/store/user/fnenna/NuGunE10_Phase2_PUstudies/140X_mcPhase2_14TeV_NuGun_MINIAOD_gemsegm/250524_110223/0000/step3_NuGunE10_inMINIAODSIM_912.root\u000a
p421
aV/store/user/fnenna/NuGunE10_Phase2_PUstudies/140X_mcPhase2_14TeV_NuGun_MINIAOD_gemsegm/250524_110223/0000/step3_NuGunE10_inMINIAODSIM_283.root\u000a
p422
aV/store/user/fnenna/NuGunE10_Phase2_PUstudies/140X_mcPhase2_14TeV_NuGun_MINIAOD_gemsegm/250524_110223/0000/step3_NuGunE10_inMINIAODSIM_360.root\u000a
p423
aV/store/user/fnenna/NuGunE10_Phase2_PUstudies/140X_mcPhase2_14TeV_NuGun_MINIAOD_gemsegm/250524_110223/0000/step3_NuGunE10_inMINIAODSIM_695.root\u000a
p424
aV/store/user/fnenna/NuGunE10_Phase2_PUstudies/140X_mcPhase2_14TeV_NuGun_MINIAOD_gemsegm/250524_110223/0000/step3_NuGunE10_inMINIAODSIM_706.root\u000a
p425
aV/store/user/fnenna/NuGunE10_Phase2_PUstudies/140X_mcPhase2_14TeV_NuGun_MINIAOD_gemsegm/250524_110223/0000/step3_NuGunE10_inMINIAODSIM_575.root\u000a
p426
aV/store/user/fnenna/NuGunE10_Phase2_PUstudies/140X_mcPhase2_14TeV_NuGun_MINIAOD_gemsegm/250524_110223/0000/step3_NuGunE10_inMINIAODSIM_723.root\u000a
p427
aV/store/user/fnenna/NuGunE10_Phase2_PUstudies/140X_mcPhase2_14TeV_NuGun_MINIAOD_gemsegm/250524_110223/0000/step3_NuGunE10_inMINIAODSIM_804.root\u000a
p428
aV/store/user/fnenna/NuGunE10_Phase2_PUstudies/140X_mcPhase2_14TeV_NuGun_MINIAOD_gemsegm/250524_110223/0000/step3_NuGunE10_inMINIAODSIM_150.root\u000a
p429
aV/store/user/fnenna/NuGunE10_Phase2_PUstudies/140X_mcPhase2_14TeV_NuGun_MINIAOD_gemsegm/250524_110223/0000/step3_NuGunE10_inMINIAODSIM_946.root\u000a
p430
aV/store/user/fnenna/NuGunE10_Phase2_PUstudies/140X_mcPhase2_14TeV_NuGun_MINIAOD_gemsegm/250524_110223/0000/step3_NuGunE10_inMINIAODSIM_748.root\u000a
p431
aV/store/user/fnenna/NuGunE10_Phase2_PUstudies/140X_mcPhase2_14TeV_NuGun_MINIAOD_gemsegm/250524_110223/0000/step3_NuGunE10_inMINIAODSIM_290.root\u000a
p432
aV/store/user/fnenna/NuGunE10_Phase2_PUstudies/140X_mcPhase2_14TeV_NuGun_MINIAOD_gemsegm/250524_110223/0000/step3_NuGunE10_inMINIAODSIM_288.root\u000a
p433
aV/store/user/fnenna/NuGunE10_Phase2_PUstudies/140X_mcPhase2_14TeV_NuGun_MINIAOD_gemsegm/250524_110223/0000/step3_NuGunE10_inMINIAODSIM_365.root\u000a
p434
aV/store/user/fnenna/NuGunE10_Phase2_PUstudies/140X_mcPhase2_14TeV_NuGun_MINIAOD_gemsegm/250524_110223/0000/step3_NuGunE10_inMINIAODSIM_738.root\u000a
p435
aV/store/user/fnenna/NuGunE10_Phase2_PUstudies/140X_mcPhase2_14TeV_NuGun_MINIAOD_gemsegm/250524_110223/0000/step3_NuGunE10_inMINIAODSIM_757.root\u000a
p436
aV/store/user/fnenna/NuGunE10_Phase2_PUstudies/140X_mcPhase2_14TeV_NuGun_MINIAOD_gemsegm/250524_110223/0000/step3_NuGunE10_inMINIAODSIM_181.root\u000a
p437
aV/store/user/fnenna/NuGunE10_Phase2_PUstudies/140X_mcPhase2_14TeV_NuGun_MINIAOD_gemsegm/250524_110223/0000/step3_NuGunE10_inMINIAODSIM_802.root\u000a
p438
aV/store/user/fnenna/NuGunE10_Phase2_PUstudies/140X_mcPhase2_14TeV_NuGun_MINIAOD_gemsegm/250524_110223/0000/step3_NuGunE10_inMINIAODSIM_729.root\u000a
p439
aV/store/user/fnenna/NuGunE10_Phase2_PUstudies/140X_mcPhase2_14TeV_NuGun_MINIAOD_gemsegm/250524_110223/0000/step3_NuGunE10_inMINIAODSIM_490.root\u000a
p440
aV/store/user/fnenna/NuGunE10_Phase2_PUstudies/140X_mcPhase2_14TeV_NuGun_MINIAOD_gemsegm/250524_110223/0000/step3_NuGunE10_inMINIAODSIM_367.root\u000a
p441
aV/store/user/fnenna/NuGunE10_Phase2_PUstudies/140X_mcPhase2_14TeV_NuGun_MINIAOD_gemsegm/250524_110223/0000/step3_NuGunE10_inMINIAODSIM_772.root\u000a
p442
aV/store/user/fnenna/NuGunE10_Phase2_PUstudies/140X_mcPhase2_14TeV_NuGun_MINIAOD_gemsegm/250524_110223/0000/step3_NuGunE10_inMINIAODSIM_420.root\u000a
p443
aV/store/user/fnenna/NuGunE10_Phase2_PUstudies/140X_mcPhase2_14TeV_NuGun_MINIAOD_gemsegm/250524_110223/0000/step3_NuGunE10_inMINIAODSIM_968.root\u000a
p444
aV/store/user/fnenna/NuGunE10_Phase2_PUstudies/140X_mcPhase2_14TeV_NuGun_MINIAOD_gemsegm/250524_110223/0000/step3_NuGunE10_inMINIAODSIM_491.root\u000a
p445
aV/store/user/fnenna/NuGunE10_Phase2_PUstudies/140X_mcPhase2_14TeV_NuGun_MINIAOD_gemsegm/250524_110223/0000/step3_NuGunE10_inMINIAODSIM_822.root\u000a
p446
aV/store/user/fnenna/NuGunE10_Phase2_PUstudies/140X_mcPhase2_14TeV_NuGun_MINIAOD_gemsegm/250524_110223/0000/step3_NuGunE10_inMINIAODSIM_38.root\u000a
p447
aV/store/user/fnenna/NuGunE10_Phase2_PUstudies/140X_mcPhase2_14TeV_NuGun_MINIAOD_gemsegm/250524_110223/0000/step3_NuGunE10_inMINIAODSIM_664.root\u000a
p448
aV/store/user/fnenna/NuGunE10_Phase2_PUstudies/140X_mcPhase2_14TeV_NuGun_MINIAOD_gemsegm/250524_110223/0000/step3_NuGunE10_inMINIAODSIM_520.root\u000a
p449
aV/store/user/fnenna/NuGunE10_Phase2_PUstudies/140X_mcPhase2_14TeV_NuGun_MINIAOD_gemsegm/250524_110223/0000/step3_NuGunE10_inMINIAODSIM_576.root\u000a
p450
aV/store/user/fnenna/NuGunE10_Phase2_PUstudies/140X_mcPhase2_14TeV_NuGun_MINIAOD_gemsegm/250524_110223/0000/step3_NuGunE10_inMINIAODSIM_409.root\u000a
p451
aV/store/user/fnenna/NuGunE10_Phase2_PUstudies/140X_mcPhase2_14TeV_NuGun_MINIAOD_gemsegm/250524_110223/0000/step3_NuGunE10_inMINIAODSIM_791.root\u000a
p452
aV/store/user/fnenna/NuGunE10_Phase2_PUstudies/140X_mcPhase2_14TeV_NuGun_MINIAOD_gemsegm/250524_110223/0000/step3_NuGunE10_inMINIAODSIM_217.root\u000a
p453
aV/store/user/fnenna/NuGunE10_Phase2_PUstudies/140X_mcPhase2_14TeV_NuGun_MINIAOD_gemsegm/250524_110223/0000/step3_NuGunE10_inMINIAODSIM_627.root\u000a
p454
aV/store/user/fnenna/NuGunE10_Phase2_PUstudies/140X_mcPhase2_14TeV_NuGun_MINIAOD_gemsegm/250524_110223/0000/step3_NuGunE10_inMINIAODSIM_835.root\u000a
p455
aV/store/user/fnenna/NuGunE10_Phase2_PUstudies/140X_mcPhase2_14TeV_NuGun_MINIAOD_gemsegm/250524_110223/0000/step3_NuGunE10_inMINIAODSIM_356.root\u000a
p456
aV/store/user/fnenna/NuGunE10_Phase2_PUstudies/140X_mcPhase2_14TeV_NuGun_MINIAOD_gemsegm/250524_110223/0000/step3_NuGunE10_inMINIAODSIM_434.root\u000a
p457
aV/store/user/fnenna/NuGunE10_Phase2_PUstudies/140X_mcPhase2_14TeV_NuGun_MINIAOD_gemsegm/250524_110223/0000/step3_NuGunE10_inMINIAODSIM_480.root\u000a
p458
aV/store/user/fnenna/NuGunE10_Phase2_PUstudies/140X_mcPhase2_14TeV_NuGun_MINIAOD_gemsegm/250524_110223/0000/step3_NuGunE10_inMINIAODSIM_715.root\u000a
p459
aV/store/user/fnenna/NuGunE10_Phase2_PUstudies/140X_mcPhase2_14TeV_NuGun_MINIAOD_gemsegm/250524_110223/0000/step3_NuGunE10_inMINIAODSIM_231.root\u000a
p460
aV/store/user/fnenna/NuGunE10_Phase2_PUstudies/140X_mcPhase2_14TeV_NuGun_MINIAOD_gemsegm/250524_110223/0000/step3_NuGunE10_inMINIAODSIM_583.root\u000a
p461
aV/store/user/fnenna/NuGunE10_Phase2_PUstudies/140X_mcPhase2_14TeV_NuGun_MINIAOD_gemsegm/250524_110223/0000/step3_NuGunE10_inMINIAODSIM_586.root\u000a
p462
aV/store/user/fnenna/NuGunE10_Phase2_PUstudies/140X_mcPhase2_14TeV_NuGun_MINIAOD_gemsegm/250524_110223/0000/step3_NuGunE10_inMINIAODSIM_332.root\u000a
p463
aV/store/user/fnenna/NuGunE10_Phase2_PUstudies/140X_mcPhase2_14TeV_NuGun_MINIAOD_gemsegm/250524_110223/0000/step3_NuGunE10_inMINIAODSIM_213.root\u000a
p464
aV/store/user/fnenna/NuGunE10_Phase2_PUstudies/140X_mcPhase2_14TeV_NuGun_MINIAOD_gemsegm/250524_110223/0000/step3_NuGunE10_inMINIAODSIM_596.root\u000a
p465
aV/store/user/fnenna/NuGunE10_Phase2_PUstudies/140X_mcPhase2_14TeV_NuGun_MINIAOD_gemsegm/250524_110223/0000/step3_NuGunE10_inMINIAODSIM_921.root\u000a
p466
aV/store/user/fnenna/NuGunE10_Phase2_PUstudies/140X_mcPhase2_14TeV_NuGun_MINIAOD_gemsegm/250524_110223/0000/step3_NuGunE10_inMINIAODSIM_776.root\u000a
p467
aV/store/user/fnenna/NuGunE10_Phase2_PUstudies/140X_mcPhase2_14TeV_NuGun_MINIAOD_gemsegm/250524_110223/0000/step3_NuGunE10_inMINIAODSIM_149.root\u000a
p468
aV/store/user/fnenna/NuGunE10_Phase2_PUstudies/140X_mcPhase2_14TeV_NuGun_MINIAOD_gemsegm/250524_110223/0000/step3_NuGunE10_inMINIAODSIM_550.root\u000a
p469
aV/store/user/fnenna/NuGunE10_Phase2_PUstudies/140X_mcPhase2_14TeV_NuGun_MINIAOD_gemsegm/250524_110223/0000/step3_NuGunE10_inMINIAODSIM_896.root\u000a
p470
aV/store/user/fnenna/NuGunE10_Phase2_PUstudies/140X_mcPhase2_14TeV_NuGun_MINIAOD_gemsegm/250524_110223/0000/step3_NuGunE10_inMINIAODSIM_346.root\u000a
p471
aV/store/user/fnenna/NuGunE10_Phase2_PUstudies/140X_mcPhase2_14TeV_NuGun_MINIAOD_gemsegm/250524_110223/0000/step3_NuGunE10_inMINIAODSIM_182.root\u000a
p472
aV/store/user/fnenna/NuGunE10_Phase2_PUstudies/140X_mcPhase2_14TeV_NuGun_MINIAOD_gemsegm/250524_110223/0000/step3_NuGunE10_inMINIAODSIM_333.root\u000a
p473
aV/store/user/fnenna/NuGunE10_Phase2_PUstudies/140X_mcPhase2_14TeV_NuGun_MINIAOD_gemsegm/250524_110223/0000/step3_NuGunE10_inMINIAODSIM_519.root\u000a
p474
aV/store/user/fnenna/NuGunE10_Phase2_PUstudies/140X_mcPhase2_14TeV_NuGun_MINIAOD_gemsegm/250524_110223/0000/step3_NuGunE10_inMINIAODSIM_963.root\u000a
p475
aV/store/user/fnenna/NuGunE10_Phase2_PUstudies/140X_mcPhase2_14TeV_NuGun_MINIAOD_gemsegm/250524_110223/0000/step3_NuGunE10_inMINIAODSIM_923.root\u000a
p476
aV/store/user/fnenna/NuGunE10_Phase2_PUstudies/140X_mcPhase2_14TeV_NuGun_MINIAOD_gemsegm/250524_110223/0000/step3_NuGunE10_inMINIAODSIM_601.root\u000a
p477
aV/store/user/fnenna/NuGunE10_Phase2_PUstudies/140X_mcPhase2_14TeV_NuGun_MINIAOD_gemsegm/250524_110223/0000/step3_NuGunE10_inMINIAODSIM_64.root\u000a
p478
aV/store/user/fnenna/NuGunE10_Phase2_PUstudies/140X_mcPhase2_14TeV_NuGun_MINIAOD_gemsegm/250524_110223/0000/step3_NuGunE10_inMINIAODSIM_653.root\u000a
p479
aV/store/user/fnenna/NuGunE10_Phase2_PUstudies/140X_mcPhase2_14TeV_NuGun_MINIAOD_gemsegm/250524_110223/0000/step3_NuGunE10_inMINIAODSIM_710.root\u000a
p480
aV/store/user/fnenna/NuGunE10_Phase2_PUstudies/140X_mcPhase2_14TeV_NuGun_MINIAOD_gemsegm/250524_110223/0000/step3_NuGunE10_inMINIAODSIM_922.root\u000a
p481
aV/store/user/fnenna/NuGunE10_Phase2_PUstudies/140X_mcPhase2_14TeV_NuGun_MINIAOD_gemsegm/250524_110223/0000/step3_NuGunE10_inMINIAODSIM_83.root\u000a
p482
aV/store/user/fnenna/NuGunE10_Phase2_PUstudies/140X_mcPhase2_14TeV_NuGun_MINIAOD_gemsegm/250524_110223/0000/step3_NuGunE10_inMINIAODSIM_243.root\u000a
p483
aV/store/user/fnenna/NuGunE10_Phase2_PUstudies/140X_mcPhase2_14TeV_NuGun_MINIAOD_gemsegm/250524_110223/0000/step3_NuGunE10_inMINIAODSIM_84.root\u000a
p484
aV/store/user/fnenna/NuGunE10_Phase2_PUstudies/140X_mcPhase2_14TeV_NuGun_MINIAOD_gemsegm/250524_110223/0000/step3_NuGunE10_inMINIAODSIM_388.root\u000a
p485
aV/store/user/fnenna/NuGunE10_Phase2_PUstudies/140X_mcPhase2_14TeV_NuGun_MINIAOD_gemsegm/250524_110223/0000/step3_NuGunE10_inMINIAODSIM_457.root\u000a
p486
aV/store/user/fnenna/NuGunE10_Phase2_PUstudies/140X_mcPhase2_14TeV_NuGun_MINIAOD_gemsegm/250524_110223/0000/step3_NuGunE10_inMINIAODSIM_574.root\u000a
p487
aV/store/user/fnenna/NuGunE10_Phase2_PUstudies/140X_mcPhase2_14TeV_NuGun_MINIAOD_gemsegm/250524_110223/0000/step3_NuGunE10_inMINIAODSIM_634.root\u000a
p488
aV/store/user/fnenna/NuGunE10_Phase2_PUstudies/140X_mcPhase2_14TeV_NuGun_MINIAOD_gemsegm/250524_110223/0000/step3_NuGunE10_inMINIAODSIM_666.root\u000a
p489
aV/store/user/fnenna/NuGunE10_Phase2_PUstudies/140X_mcPhase2_14TeV_NuGun_MINIAOD_gemsegm/250524_110223/0000/step3_NuGunE10_inMINIAODSIM_790.root\u000a
p490
aV/store/user/fnenna/NuGunE10_Phase2_PUstudies/140X_mcPhase2_14TeV_NuGun_MINIAOD_gemsegm/250524_110223/0000/step3_NuGunE10_inMINIAODSIM_625.root\u000a
p491
aV/store/user/fnenna/NuGunE10_Phase2_PUstudies/140X_mcPhase2_14TeV_NuGun_MINIAOD_gemsegm/250524_110223/0000/step3_NuGunE10_inMINIAODSIM_827.root\u000a
p492
aV/store/user/fnenna/NuGunE10_Phase2_PUstudies/140X_mcPhase2_14TeV_NuGun_MINIAOD_gemsegm/250524_110223/0000/step3_NuGunE10_inMINIAODSIM_349.root\u000a
p493
aV/store/user/fnenna/NuGunE10_Phase2_PUstudies/140X_mcPhase2_14TeV_NuGun_MINIAOD_gemsegm/250524_110223/0000/step3_NuGunE10_inMINIAODSIM_313.root\u000a
p494
aV/store/user/fnenna/NuGunE10_Phase2_PUstudies/140X_mcPhase2_14TeV_NuGun_MINIAOD_gemsegm/250524_110223/0000/step3_NuGunE10_inMINIAODSIM_539.root\u000a
p495
aV/store/user/fnenna/NuGunE10_Phase2_PUstudies/140X_mcPhase2_14TeV_NuGun_MINIAOD_gemsegm/250524_110223/0000/step3_NuGunE10_inMINIAODSIM_702.root\u000a
p496
aV/store/user/fnenna/NuGunE10_Phase2_PUstudies/140X_mcPhase2_14TeV_NuGun_MINIAOD_gemsegm/250524_110223/0000/step3_NuGunE10_inMINIAODSIM_281.root\u000a
p497
aV/store/user/fnenna/NuGunE10_Phase2_PUstudies/140X_mcPhase2_14TeV_NuGun_MINIAOD_gemsegm/250524_110223/0000/step3_NuGunE10_inMINIAODSIM_731.root\u000a
p498
aV/store/user/fnenna/NuGunE10_Phase2_PUstudies/140X_mcPhase2_14TeV_NuGun_MINIAOD_gemsegm/250524_110223/0000/step3_NuGunE10_inMINIAODSIM_594.root\u000a
p499
aV/store/user/fnenna/NuGunE10_Phase2_PUstudies/140X_mcPhase2_14TeV_NuGun_MINIAOD_gemsegm/250524_110223/0000/step3_NuGunE10_inMINIAODSIM_255.root\u000a
p500
aV/store/user/fnenna/NuGunE10_Phase2_PUstudies/140X_mcPhase2_14TeV_NuGun_MINIAOD_gemsegm/250524_110223/0000/step3_NuGunE10_inMINIAODSIM_542.root\u000a
p501
aV/store/user/fnenna/NuGunE10_Phase2_PUstudies/140X_mcPhase2_14TeV_NuGun_MINIAOD_gemsegm/250524_110223/0000/step3_NuGunE10_inMINIAODSIM_637.root\u000a
p502
aV/store/user/fnenna/NuGunE10_Phase2_PUstudies/140X_mcPhase2_14TeV_NuGun_MINIAOD_gemsegm/250524_110223/0000/step3_NuGunE10_inMINIAODSIM_651.root\u000a
p503
aV/store/user/fnenna/NuGunE10_Phase2_PUstudies/140X_mcPhase2_14TeV_NuGun_MINIAOD_gemsegm/250524_110223/0000/step3_NuGunE10_inMINIAODSIM_924.root\u000a
p504
aV/store/user/fnenna/NuGunE10_Phase2_PUstudies/140X_mcPhase2_14TeV_NuGun_MINIAOD_gemsegm/250524_110223/0000/step3_NuGunE10_inMINIAODSIM_926.root\u000a
p505
aV/store/user/fnenna/NuGunE10_Phase2_PUstudies/140X_mcPhase2_14TeV_NuGun_MINIAOD_gemsegm/250524_110223/0000/step3_NuGunE10_inMINIAODSIM_22.root\u000a
p506
aV/store/user/fnenna/NuGunE10_Phase2_PUstudies/140X_mcPhase2_14TeV_NuGun_MINIAOD_gemsegm/250524_110223/0000/step3_NuGunE10_inMINIAODSIM_501.root\u000a
p507
aV/store/user/fnenna/NuGunE10_Phase2_PUstudies/140X_mcPhase2_14TeV_NuGun_MINIAOD_gemsegm/250524_110223/0000/step3_NuGunE10_inMINIAODSIM_195.root\u000a
p508
aV/store/user/fnenna/NuGunE10_Phase2_PUstudies/140X_mcPhase2_14TeV_NuGun_MINIAOD_gemsegm/250524_110223/0000/step3_NuGunE10_inMINIAODSIM_81.root\u000a
p509
aV/store/user/fnenna/NuGunE10_Phase2_PUstudies/140X_mcPhase2_14TeV_NuGun_MINIAOD_gemsegm/250524_110223/0000/step3_NuGunE10_inMINIAODSIM_379.root\u000a
p510
aV/store/user/fnenna/NuGunE10_Phase2_PUstudies/140X_mcPhase2_14TeV_NuGun_MINIAOD_gemsegm/250524_110223/0000/step3_NuGunE10_inMINIAODSIM_580.root\u000a
p511
aV/store/user/fnenna/NuGunE10_Phase2_PUstudies/140X_mcPhase2_14TeV_NuGun_MINIAOD_gemsegm/250524_110223/0000/step3_NuGunE10_inMINIAODSIM_622.root\u000a
p512
aV/store/user/fnenna/NuGunE10_Phase2_PUstudies/140X_mcPhase2_14TeV_NuGun_MINIAOD_gemsegm/250524_110223/0000/step3_NuGunE10_inMINIAODSIM_319.root\u000a
p513
aV/store/user/fnenna/NuGunE10_Phase2_PUstudies/140X_mcPhase2_14TeV_NuGun_MINIAOD_gemsegm/250524_110223/0000/step3_NuGunE10_inMINIAODSIM_54.root\u000a
p514
aV/store/user/fnenna/NuGunE10_Phase2_PUstudies/140X_mcPhase2_14TeV_NuGun_MINIAOD_gemsegm/250524_110223/0000/step3_NuGunE10_inMINIAODSIM_338.root\u000a
p515
aV/store/user/fnenna/NuGunE10_Phase2_PUstudies/140X_mcPhase2_14TeV_NuGun_MINIAOD_gemsegm/250524_110223/0000/step3_NuGunE10_inMINIAODSIM_236.root\u000a
p516
aV/store/user/fnenna/NuGunE10_Phase2_PUstudies/140X_mcPhase2_14TeV_NuGun_MINIAOD_gemsegm/250524_110223/0000/step3_NuGunE10_inMINIAODSIM_630.root\u000a
p517
aV/store/user/fnenna/NuGunE10_Phase2_PUstudies/140X_mcPhase2_14TeV_NuGun_MINIAOD_gemsegm/250524_110223/0000/step3_NuGunE10_inMINIAODSIM_340.root\u000a
p518
aV/store/user/fnenna/NuGunE10_Phase2_PUstudies/140X_mcPhase2_14TeV_NuGun_MINIAOD_gemsegm/250524_110223/0000/step3_NuGunE10_inMINIAODSIM_73.root\u000a
p519
aV/store/user/fnenna/NuGunE10_Phase2_PUstudies/140X_mcPhase2_14TeV_NuGun_MINIAOD_gemsegm/250524_110223/0000/step3_NuGunE10_inMINIAODSIM_955.root\u000a
p520
aV/store/user/fnenna/NuGunE10_Phase2_PUstudies/140X_mcPhase2_14TeV_NuGun_MINIAOD_gemsegm/250524_110223/0000/step3_NuGunE10_inMINIAODSIM_683.root\u000a
p521
aV/store/user/fnenna/NuGunE10_Phase2_PUstudies/140X_mcPhase2_14TeV_NuGun_MINIAOD_gemsegm/250524_110223/0000/step3_NuGunE10_inMINIAODSIM_160.root\u000a
p522
aV/store/user/fnenna/NuGunE10_Phase2_PUstudies/140X_mcPhase2_14TeV_NuGun_MINIAOD_gemsegm/250524_110223/0000/step3_NuGunE10_inMINIAODSIM_478.root\u000a
p523
aV/store/user/fnenna/NuGunE10_Phase2_PUstudies/140X_mcPhase2_14TeV_NuGun_MINIAOD_gemsegm/250524_110223/0000/step3_NuGunE10_inMINIAODSIM_531.root\u000a
p524
aV/store/user/fnenna/NuGunE10_Phase2_PUstudies/140X_mcPhase2_14TeV_NuGun_MINIAOD_gemsegm/250524_110223/0000/step3_NuGunE10_inMINIAODSIM_123.root\u000a
p525
aV/store/user/fnenna/NuGunE10_Phase2_PUstudies/140X_mcPhase2_14TeV_NuGun_MINIAOD_gemsegm/250524_110223/0000/step3_NuGunE10_inMINIAODSIM_311.root\u000a
p526
aV/store/user/fnenna/NuGunE10_Phase2_PUstudies/140X_mcPhase2_14TeV_NuGun_MINIAOD_gemsegm/250524_110223/0000/step3_NuGunE10_inMINIAODSIM_90.root\u000a
p527
aV/store/user/fnenna/NuGunE10_Phase2_PUstudies/140X_mcPhase2_14TeV_NuGun_MINIAOD_gemsegm/250524_110223/0000/step3_NuGunE10_inMINIAODSIM_561.root\u000a
p528
aV/store/user/fnenna/NuGunE10_Phase2_PUstudies/140X_mcPhase2_14TeV_NuGun_MINIAOD_gemsegm/250524_110223/0000/step3_NuGunE10_inMINIAODSIM_965.root\u000a
p529
aV/store/user/fnenna/NuGunE10_Phase2_PUstudies/140X_mcPhase2_14TeV_NuGun_MINIAOD_gemsegm/250524_110223/0000/step3_NuGunE10_inMINIAODSIM_781.root\u000a
p530
aV/store/user/fnenna/NuGunE10_Phase2_PUstudies/140X_mcPhase2_14TeV_NuGun_MINIAOD_gemsegm/250524_110223/0000/step3_NuGunE10_inMINIAODSIM_359.root\u000a
p531
aV/store/user/fnenna/NuGunE10_Phase2_PUstudies/140X_mcPhase2_14TeV_NuGun_MINIAOD_gemsegm/250524_110223/0000/step3_NuGunE10_inMINIAODSIM_77.root\u000a
p532
aV/store/user/fnenna/NuGunE10_Phase2_PUstudies/140X_mcPhase2_14TeV_NuGun_MINIAOD_gemsegm/250524_110223/0000/step3_NuGunE10_inMINIAODSIM_903.root\u000a
p533
aV/store/user/fnenna/NuGunE10_Phase2_PUstudies/140X_mcPhase2_14TeV_NuGun_MINIAOD_gemsegm/250524_110223/0000/step3_NuGunE10_inMINIAODSIM_961.root\u000a
p534
aV/store/user/fnenna/NuGunE10_Phase2_PUstudies/140X_mcPhase2_14TeV_NuGun_MINIAOD_gemsegm/250524_110223/0000/step3_NuGunE10_inMINIAODSIM_174.root\u000a
p535
aV/store/user/fnenna/NuGunE10_Phase2_PUstudies/140X_mcPhase2_14TeV_NuGun_MINIAOD_gemsegm/250524_110223/0000/step3_NuGunE10_inMINIAODSIM_878.root\u000a
p536
aV/store/user/fnenna/NuGunE10_Phase2_PUstudies/140X_mcPhase2_14TeV_NuGun_MINIAOD_gemsegm/250524_110223/0000/step3_NuGunE10_inMINIAODSIM_82.root\u000a
p537
aV/store/user/fnenna/NuGunE10_Phase2_PUstudies/140X_mcPhase2_14TeV_NuGun_MINIAOD_gemsegm/250524_110223/0000/step3_NuGunE10_inMINIAODSIM_856.root\u000a
p538
aV/store/user/fnenna/NuGunE10_Phase2_PUstudies/140X_mcPhase2_14TeV_NuGun_MINIAOD_gemsegm/250524_110223/0000/step3_NuGunE10_inMINIAODSIM_17.root\u000a
p539
aV/store/user/fnenna/NuGunE10_Phase2_PUstudies/140X_mcPhase2_14TeV_NuGun_MINIAOD_gemsegm/250524_110223/0000/step3_NuGunE10_inMINIAODSIM_920.root\u000a
p540
aV/store/user/fnenna/NuGunE10_Phase2_PUstudies/140X_mcPhase2_14TeV_NuGun_MINIAOD_gemsegm/250524_110223/0000/step3_NuGunE10_inMINIAODSIM_51.root\u000a
p541
aV/store/user/fnenna/NuGunE10_Phase2_PUstudies/140X_mcPhase2_14TeV_NuGun_MINIAOD_gemsegm/250524_110223/0000/step3_NuGunE10_inMINIAODSIM_658.root\u000a
p542
aV/store/user/fnenna/NuGunE10_Phase2_PUstudies/140X_mcPhase2_14TeV_NuGun_MINIAOD_gemsegm/250524_110223/0000/step3_NuGunE10_inMINIAODSIM_769.root\u000a
p543
aV/store/user/fnenna/NuGunE10_Phase2_PUstudies/140X_mcPhase2_14TeV_NuGun_MINIAOD_gemsegm/250524_110223/0000/step3_NuGunE10_inMINIAODSIM_782.root\u000a
p544
aV/store/user/fnenna/NuGunE10_Phase2_PUstudies/140X_mcPhase2_14TeV_NuGun_MINIAOD_gemsegm/250524_110223/0000/step3_NuGunE10_inMINIAODSIM_869.root\u000a
p545
aV/store/user/fnenna/NuGunE10_Phase2_PUstudies/140X_mcPhase2_14TeV_NuGun_MINIAOD_gemsegm/250524_110223/0000/step3_NuGunE10_inMINIAODSIM_234.root\u000a
p546
aV/store/user/fnenna/NuGunE10_Phase2_PUstudies/140X_mcPhase2_14TeV_NuGun_MINIAOD_gemsegm/250524_110223/0000/step3_NuGunE10_inMINIAODSIM_46.root\u000a
p547
aV/store/user/fnenna/NuGunE10_Phase2_PUstudies/140X_mcPhase2_14TeV_NuGun_MINIAOD_gemsegm/250524_110223/0000/step3_NuGunE10_inMINIAODSIM_969.root\u000a
p548
aV/store/user/fnenna/NuGunE10_Phase2_PUstudies/140X_mcPhase2_14TeV_NuGun_MINIAOD_gemsegm/250524_110223/0000/step3_NuGunE10_inMINIAODSIM_70.root\u000a
p549
aV/store/user/fnenna/NuGunE10_Phase2_PUstudies/140X_mcPhase2_14TeV_NuGun_MINIAOD_gemsegm/250524_110223/0000/step3_NuGunE10_inMINIAODSIM_545.root\u000a
p550
aV/store/user/fnenna/NuGunE10_Phase2_PUstudies/140X_mcPhase2_14TeV_NuGun_MINIAOD_gemsegm/250524_110223/0000/step3_NuGunE10_inMINIAODSIM_337.root\u000a
p551
aV/store/user/fnenna/NuGunE10_Phase2_PUstudies/140X_mcPhase2_14TeV_NuGun_MINIAOD_gemsegm/250524_110223/0000/step3_NuGunE10_inMINIAODSIM_366.root\u000a
p552
aV/store/user/fnenna/NuGunE10_Phase2_PUstudies/140X_mcPhase2_14TeV_NuGun_MINIAOD_gemsegm/250524_110223/0000/step3_NuGunE10_inMINIAODSIM_606.root\u000a
p553
aV/store/user/fnenna/NuGunE10_Phase2_PUstudies/140X_mcPhase2_14TeV_NuGun_MINIAOD_gemsegm/250524_110223/0000/step3_NuGunE10_inMINIAODSIM_294.root\u000a
p554
aV/store/user/fnenna/NuGunE10_Phase2_PUstudies/140X_mcPhase2_14TeV_NuGun_MINIAOD_gemsegm/250524_110223/0000/step3_NuGunE10_inMINIAODSIM_49.root\u000a
p555
aV/store/user/fnenna/NuGunE10_Phase2_PUstudies/140X_mcPhase2_14TeV_NuGun_MINIAOD_gemsegm/250524_110223/0000/step3_NuGunE10_inMINIAODSIM_684.root\u000a
p556
aV/store/user/fnenna/NuGunE10_Phase2_PUstudies/140X_mcPhase2_14TeV_NuGun_MINIAOD_gemsegm/250524_110223/0000/step3_NuGunE10_inMINIAODSIM_860.root\u000a
p557
aV/store/user/fnenna/NuGunE10_Phase2_PUstudies/140X_mcPhase2_14TeV_NuGun_MINIAOD_gemsegm/250524_110223/0000/step3_NuGunE10_inMINIAODSIM_135.root\u000a
p558
aV/store/user/fnenna/NuGunE10_Phase2_PUstudies/140X_mcPhase2_14TeV_NuGun_MINIAOD_gemsegm/250524_110223/0000/step3_NuGunE10_inMINIAODSIM_565.root\u000a
p559
aV/store/user/fnenna/NuGunE10_Phase2_PUstudies/140X_mcPhase2_14TeV_NuGun_MINIAOD_gemsegm/250524_110223/0000/step3_NuGunE10_inMINIAODSIM_287.root\u000a
p560
aV/store/user/fnenna/NuGunE10_Phase2_PUstudies/140X_mcPhase2_14TeV_NuGun_MINIAOD_gemsegm/250524_110223/0000/step3_NuGunE10_inMINIAODSIM_485.root\u000a
p561
aV/store/user/fnenna/NuGunE10_Phase2_PUstudies/140X_mcPhase2_14TeV_NuGun_MINIAOD_gemsegm/250524_110223/0000/step3_NuGunE10_inMINIAODSIM_820.root\u000a
p562
aV/store/user/fnenna/NuGunE10_Phase2_PUstudies/140X_mcPhase2_14TeV_NuGun_MINIAOD_gemsegm/250524_110223/0000/step3_NuGunE10_inMINIAODSIM_913.root\u000a
p563
aV/store/user/fnenna/NuGunE10_Phase2_PUstudies/140X_mcPhase2_14TeV_NuGun_MINIAOD_gemsegm/250524_110223/0000/step3_NuGunE10_inMINIAODSIM_966.root\u000a
p564
aV/store/user/fnenna/NuGunE10_Phase2_PUstudies/140X_mcPhase2_14TeV_NuGun_MINIAOD_gemsegm/250524_110223/0000/step3_NuGunE10_inMINIAODSIM_667.root\u000a
p565
aV/store/user/fnenna/NuGunE10_Phase2_PUstudies/140X_mcPhase2_14TeV_NuGun_MINIAOD_gemsegm/250524_110223/0000/step3_NuGunE10_inMINIAODSIM_544.root\u000a
p566
aV/store/user/fnenna/NuGunE10_Phase2_PUstudies/140X_mcPhase2_14TeV_NuGun_MINIAOD_gemsegm/250524_110223/0000/step3_NuGunE10_inMINIAODSIM_52.root\u000a
p567
aV/store/user/fnenna/NuGunE10_Phase2_PUstudies/140X_mcPhase2_14TeV_NuGun_MINIAOD_gemsegm/250524_110223/0000/step3_NuGunE10_inMINIAODSIM_104.root\u000a
p568
aV/store/user/fnenna/NuGunE10_Phase2_PUstudies/140X_mcPhase2_14TeV_NuGun_MINIAOD_gemsegm/250524_110223/0000/step3_NuGunE10_inMINIAODSIM_801.root\u000a
p569
aV/store/user/fnenna/NuGunE10_Phase2_PUstudies/140X_mcPhase2_14TeV_NuGun_MINIAOD_gemsegm/250524_110223/0000/step3_NuGunE10_inMINIAODSIM_581.root\u000a
p570
aV/store/user/fnenna/NuGunE10_Phase2_PUstudies/140X_mcPhase2_14TeV_NuGun_MINIAOD_gemsegm/250524_110223/0000/step3_NuGunE10_inMINIAODSIM_34.root\u000a
p571
aV/store/user/fnenna/NuGunE10_Phase2_PUstudies/140X_mcPhase2_14TeV_NuGun_MINIAOD_gemsegm/250524_110223/0000/step3_NuGunE10_inMINIAODSIM_851.root\u000a
p572
aV/store/user/fnenna/NuGunE10_Phase2_PUstudies/140X_mcPhase2_14TeV_NuGun_MINIAOD_gemsegm/250524_110223/0000/step3_NuGunE10_inMINIAODSIM_809.root\u000a
p573
aV/store/user/fnenna/NuGunE10_Phase2_PUstudies/140X_mcPhase2_14TeV_NuGun_MINIAOD_gemsegm/250524_110223/0000/step3_NuGunE10_inMINIAODSIM_53.root\u000a
p574
aV/store/user/fnenna/NuGunE10_Phase2_PUstudies/140X_mcPhase2_14TeV_NuGun_MINIAOD_gemsegm/250524_110223/0000/step3_NuGunE10_inMINIAODSIM_951.root\u000a
p575
aV/store/user/fnenna/NuGunE10_Phase2_PUstudies/140X_mcPhase2_14TeV_NuGun_MINIAOD_gemsegm/250524_110223/0000/step3_NuGunE10_inMINIAODSIM_566.root\u000a
p576
aV/store/user/fnenna/NuGunE10_Phase2_PUstudies/140X_mcPhase2_14TeV_NuGun_MINIAOD_gemsegm/250524_110223/0000/step3_NuGunE10_inMINIAODSIM_855.root\u000a
p577
aV/store/user/fnenna/NuGunE10_Phase2_PUstudies/140X_mcPhase2_14TeV_NuGun_MINIAOD_gemsegm/250524_110223/0000/step3_NuGunE10_inMINIAODSIM_155.root\u000a
p578
aV/store/user/fnenna/NuGunE10_Phase2_PUstudies/140X_mcPhase2_14TeV_NuGun_MINIAOD_gemsegm/250524_110223/0000/step3_NuGunE10_inMINIAODSIM_127.root\u000a
p579
aV/store/user/fnenna/NuGunE10_Phase2_PUstudies/140X_mcPhase2_14TeV_NuGun_MINIAOD_gemsegm/250524_110223/0000/step3_NuGunE10_inMINIAODSIM_499.root\u000a
p580
aV/store/user/fnenna/NuGunE10_Phase2_PUstudies/140X_mcPhase2_14TeV_NuGun_MINIAOD_gemsegm/250524_110223/0000/step3_NuGunE10_inMINIAODSIM_494.root\u000a
p581
aV/store/user/fnenna/NuGunE10_Phase2_PUstudies/140X_mcPhase2_14TeV_NuGun_MINIAOD_gemsegm/250524_110223/0000/step3_NuGunE10_inMINIAODSIM_744.root\u000a
p582
aV/store/user/fnenna/NuGunE10_Phase2_PUstudies/140X_mcPhase2_14TeV_NuGun_MINIAOD_gemsegm/250524_110223/0000/step3_NuGunE10_inMINIAODSIM_558.root\u000a
p583
aV/store/user/fnenna/NuGunE10_Phase2_PUstudies/140X_mcPhase2_14TeV_NuGun_MINIAOD_gemsegm/250524_110223/0000/step3_NuGunE10_inMINIAODSIM_358.root\u000a
p584
aV/store/user/fnenna/NuGunE10_Phase2_PUstudies/140X_mcPhase2_14TeV_NuGun_MINIAOD_gemsegm/250524_110223/0000/step3_NuGunE10_inMINIAODSIM_842.root\u000a
p585
aV/store/user/fnenna/NuGunE10_Phase2_PUstudies/140X_mcPhase2_14TeV_NuGun_MINIAOD_gemsegm/250524_110223/0000/step3_NuGunE10_inMINIAODSIM_431.root\u000a
p586
aV/store/user/fnenna/NuGunE10_Phase2_PUstudies/140X_mcPhase2_14TeV_NuGun_MINIAOD_gemsegm/250524_110223/0000/step3_NuGunE10_inMINIAODSIM_642.root\u000a
p587
aV/store/user/fnenna/NuGunE10_Phase2_PUstudies/140X_mcPhase2_14TeV_NuGun_MINIAOD_gemsegm/250524_110223/0000/step3_NuGunE10_inMINIAODSIM_437.root\u000a
p588
aV/store/user/fnenna/NuGunE10_Phase2_PUstudies/140X_mcPhase2_14TeV_NuGun_MINIAOD_gemsegm/250524_110223/0000/step3_NuGunE10_inMINIAODSIM_31.root\u000a
p589
aV/store/user/fnenna/NuGunE10_Phase2_PUstudies/140X_mcPhase2_14TeV_NuGun_MINIAOD_gemsegm/250524_110223/0000/step3_NuGunE10_inMINIAODSIM_865.root\u000a
p590
aV/store/user/fnenna/NuGunE10_Phase2_PUstudies/140X_mcPhase2_14TeV_NuGun_MINIAOD_gemsegm/250524_110223/0000/step3_NuGunE10_inMINIAODSIM_271.root\u000a
p591
aV/store/user/fnenna/NuGunE10_Phase2_PUstudies/140X_mcPhase2_14TeV_NuGun_MINIAOD_gemsegm/250524_110223/0000/step3_NuGunE10_inMINIAODSIM_473.root\u000a
p592
aV/store/user/fnenna/NuGunE10_Phase2_PUstudies/140X_mcPhase2_14TeV_NuGun_MINIAOD_gemsegm/250524_110223/0000/step3_NuGunE10_inMINIAODSIM_992.root\u000a
p593
aV/store/user/fnenna/NuGunE10_Phase2_PUstudies/140X_mcPhase2_14TeV_NuGun_MINIAOD_gemsegm/250524_110223/0000/step3_NuGunE10_inMINIAODSIM_459.root\u000a
p594
aV/store/user/fnenna/NuGunE10_Phase2_PUstudies/140X_mcPhase2_14TeV_NuGun_MINIAOD_gemsegm/250524_110223/0000/step3_NuGunE10_inMINIAODSIM_268.root\u000a
p595
aV/store/user/fnenna/NuGunE10_Phase2_PUstudies/140X_mcPhase2_14TeV_NuGun_MINIAOD_gemsegm/250524_110223/0000/step3_NuGunE10_inMINIAODSIM_50.root\u000a
p596
aV/store/user/fnenna/NuGunE10_Phase2_PUstudies/140X_mcPhase2_14TeV_NuGun_MINIAOD_gemsegm/250524_110223/0000/step3_NuGunE10_inMINIAODSIM_352.root\u000a
p597
aV/store/user/fnenna/NuGunE10_Phase2_PUstudies/140X_mcPhase2_14TeV_NuGun_MINIAOD_gemsegm/250524_110223/0000/step3_NuGunE10_inMINIAODSIM_355.root\u000a
p598
aV/store/user/fnenna/NuGunE10_Phase2_PUstudies/140X_mcPhase2_14TeV_NuGun_MINIAOD_gemsegm/250524_110223/0000/step3_NuGunE10_inMINIAODSIM_464.root\u000a
p599
aV/store/user/fnenna/NuGunE10_Phase2_PUstudies/140X_mcPhase2_14TeV_NuGun_MINIAOD_gemsegm/250524_110223/0000/step3_NuGunE10_inMINIAODSIM_721.root\u000a
p600
aV/store/user/fnenna/NuGunE10_Phase2_PUstudies/140X_mcPhase2_14TeV_NuGun_MINIAOD_gemsegm/250524_110223/0000/step3_NuGunE10_inMINIAODSIM_818.root\u000a
p601
aV/store/user/fnenna/NuGunE10_Phase2_PUstudies/140X_mcPhase2_14TeV_NuGun_MINIAOD_gemsegm/250524_110223/0000/step3_NuGunE10_inMINIAODSIM_614.root\u000a
p602
aV/store/user/fnenna/NuGunE10_Phase2_PUstudies/140X_mcPhase2_14TeV_NuGun_MINIAOD_gemsegm/250524_110223/0000/step3_NuGunE10_inMINIAODSIM_530.root\u000a
p603
aV/store/user/fnenna/NuGunE10_Phase2_PUstudies/140X_mcPhase2_14TeV_NuGun_MINIAOD_gemsegm/250524_110223/0000/step3_NuGunE10_inMINIAODSIM_298.root\u000a
p604
aV/store/user/fnenna/NuGunE10_Phase2_PUstudies/140X_mcPhase2_14TeV_NuGun_MINIAOD_gemsegm/250524_110223/0000/step3_NuGunE10_inMINIAODSIM_157.root\u000a
p605
aV/store/user/fnenna/NuGunE10_Phase2_PUstudies/140X_mcPhase2_14TeV_NuGun_MINIAOD_gemsegm/250524_110223/0000/step3_NuGunE10_inMINIAODSIM_854.root\u000a
p606
aV/store/user/fnenna/NuGunE10_Phase2_PUstudies/140X_mcPhase2_14TeV_NuGun_MINIAOD_gemsegm/250524_110223/0000/step3_NuGunE10_inMINIAODSIM_430.root\u000a
p607
aV/store/user/fnenna/NuGunE10_Phase2_PUstudies/140X_mcPhase2_14TeV_NuGun_MINIAOD_gemsegm/250524_110223/0000/step3_NuGunE10_inMINIAODSIM_145.root\u000a
p608
aV/store/user/fnenna/NuGunE10_Phase2_PUstudies/140X_mcPhase2_14TeV_NuGun_MINIAOD_gemsegm/250524_110223/0000/step3_NuGunE10_inMINIAODSIM_251.root\u000a
p609
aV/store/user/fnenna/NuGunE10_Phase2_PUstudies/140X_mcPhase2_14TeV_NuGun_MINIAOD_gemsegm/250524_110223/0000/step3_NuGunE10_inMINIAODSIM_944.root\u000a
p610
aV/store/user/fnenna/NuGunE10_Phase2_PUstudies/140X_mcPhase2_14TeV_NuGun_MINIAOD_gemsegm/250524_110223/0000/step3_NuGunE10_inMINIAODSIM_204.root\u000a
p611
aV/store/user/fnenna/NuGunE10_Phase2_PUstudies/140X_mcPhase2_14TeV_NuGun_MINIAOD_gemsegm/250524_110223/0000/step3_NuGunE10_inMINIAODSIM_866.root\u000a
p612
aV/store/user/fnenna/NuGunE10_Phase2_PUstudies/140X_mcPhase2_14TeV_NuGun_MINIAOD_gemsegm/250524_110223/0000/step3_NuGunE10_inMINIAODSIM_626.root\u000a
p613
aV/store/user/fnenna/NuGunE10_Phase2_PUstudies/140X_mcPhase2_14TeV_NuGun_MINIAOD_gemsegm/250524_110223/0000/step3_NuGunE10_inMINIAODSIM_65.root\u000a
p614
aV/store/user/fnenna/NuGunE10_Phase2_PUstudies/140X_mcPhase2_14TeV_NuGun_MINIAOD_gemsegm/250524_110223/0000/step3_NuGunE10_inMINIAODSIM_811.root\u000a
p615
aV/store/user/fnenna/NuGunE10_Phase2_PUstudies/140X_mcPhase2_14TeV_NuGun_MINIAOD_gemsegm/250524_110223/0000/step3_NuGunE10_inMINIAODSIM_277.root\u000a
p616
aV/store/user/fnenna/NuGunE10_Phase2_PUstudies/140X_mcPhase2_14TeV_NuGun_MINIAOD_gemsegm/250524_110223/0000/step3_NuGunE10_inMINIAODSIM_883.root\u000a
p617
aV/store/user/fnenna/NuGunE10_Phase2_PUstudies/140X_mcPhase2_14TeV_NuGun_MINIAOD_gemsegm/250524_110223/0000/step3_NuGunE10_inMINIAODSIM_18.root\u000a
p618
aV/store/user/fnenna/NuGunE10_Phase2_PUstudies/140X_mcPhase2_14TeV_NuGun_MINIAOD_gemsegm/250524_110223/0000/step3_NuGunE10_inMINIAODSIM_513.root\u000a
p619
aV/store/user/fnenna/NuGunE10_Phase2_PUstudies/140X_mcPhase2_14TeV_NuGun_MINIAOD_gemsegm/250524_110223/0000/step3_NuGunE10_inMINIAODSIM_996.root\u000a
p620
aV/store/user/fnenna/NuGunE10_Phase2_PUstudies/140X_mcPhase2_14TeV_NuGun_MINIAOD_gemsegm/250524_110223/0000/step3_NuGunE10_inMINIAODSIM_178.root\u000a
p621
aV/store/user/fnenna/NuGunE10_Phase2_PUstudies/140X_mcPhase2_14TeV_NuGun_MINIAOD_gemsegm/250524_110223/0000/step3_NuGunE10_inMINIAODSIM_506.root\u000a
p622
aV/store/user/fnenna/NuGunE10_Phase2_PUstudies/140X_mcPhase2_14TeV_NuGun_MINIAOD_gemsegm/250524_110223/0000/step3_NuGunE10_inMINIAODSIM_662.root\u000a
p623
aV/store/user/fnenna/NuGunE10_Phase2_PUstudies/140X_mcPhase2_14TeV_NuGun_MINIAOD_gemsegm/250524_110223/0000/step3_NuGunE10_inMINIAODSIM_361.root\u000a
p624
aV/store/user/fnenna/NuGunE10_Phase2_PUstudies/140X_mcPhase2_14TeV_NuGun_MINIAOD_gemsegm/250524_110223/0000/step3_NuGunE10_inMINIAODSIM_3.root\u000a
p625
aV/store/user/fnenna/NuGunE10_Phase2_PUstudies/140X_mcPhase2_14TeV_NuGun_MINIAOD_gemsegm/250524_110223/0000/step3_NuGunE10_inMINIAODSIM_654.root\u000a
p626
aV/store/user/fnenna/NuGunE10_Phase2_PUstudies/140X_mcPhase2_14TeV_NuGun_MINIAOD_gemsegm/250524_110223/0000/step3_NuGunE10_inMINIAODSIM_408.root\u000a
p627
aV/store/user/fnenna/NuGunE10_Phase2_PUstudies/140X_mcPhase2_14TeV_NuGun_MINIAOD_gemsegm/250524_110223/0000/step3_NuGunE10_inMINIAODSIM_603.root\u000a
p628
aV/store/user/fnenna/NuGunE10_Phase2_PUstudies/140X_mcPhase2_14TeV_NuGun_MINIAOD_gemsegm/250524_110223/0000/step3_NuGunE10_inMINIAODSIM_689.root\u000a
p629
aV/store/user/fnenna/NuGunE10_Phase2_PUstudies/140X_mcPhase2_14TeV_NuGun_MINIAOD_gemsegm/250524_110223/0000/step3_NuGunE10_inMINIAODSIM_881.root\u000a
p630
aV/store/user/fnenna/NuGunE10_Phase2_PUstudies/140X_mcPhase2_14TeV_NuGun_MINIAOD_gemsegm/250524_110223/0000/step3_NuGunE10_inMINIAODSIM_843.root\u000a
p631
aV/store/user/fnenna/NuGunE10_Phase2_PUstudies/140X_mcPhase2_14TeV_NuGun_MINIAOD_gemsegm/250524_110223/0000/step3_NuGunE10_inMINIAODSIM_322.root\u000a
p632
aV/store/user/fnenna/NuGunE10_Phase2_PUstudies/140X_mcPhase2_14TeV_NuGun_MINIAOD_gemsegm/250524_110223/0000/step3_NuGunE10_inMINIAODSIM_93.root\u000a
p633
aV/store/user/fnenna/NuGunE10_Phase2_PUstudies/140X_mcPhase2_14TeV_NuGun_MINIAOD_gemsegm/250524_110223/0000/step3_NuGunE10_inMINIAODSIM_205.root\u000a
p634
aV/store/user/fnenna/NuGunE10_Phase2_PUstudies/140X_mcPhase2_14TeV_NuGun_MINIAOD_gemsegm/250524_110223/0000/step3_NuGunE10_inMINIAODSIM_325.root\u000a
p635
aV/store/user/fnenna/NuGunE10_Phase2_PUstudies/140X_mcPhase2_14TeV_NuGun_MINIAOD_gemsegm/250524_110223/0000/step3_NuGunE10_inMINIAODSIM_75.root\u000a
p636
aV/store/user/fnenna/NuGunE10_Phase2_PUstudies/140X_mcPhase2_14TeV_NuGun_MINIAOD_gemsegm/250524_110223/0000/step3_NuGunE10_inMINIAODSIM_441.root\u000a
p637
aV/store/user/fnenna/NuGunE10_Phase2_PUstudies/140X_mcPhase2_14TeV_NuGun_MINIAOD_gemsegm/250524_110223/0000/step3_NuGunE10_inMINIAODSIM_897.root\u000a
p638
aV/store/user/fnenna/NuGunE10_Phase2_PUstudies/140X_mcPhase2_14TeV_NuGun_MINIAOD_gemsegm/250524_110223/0000/step3_NuGunE10_inMINIAODSIM_552.root\u000a
p639
aV/store/user/fnenna/NuGunE10_Phase2_PUstudies/140X_mcPhase2_14TeV_NuGun_MINIAOD_gemsegm/250524_110223/0000/step3_NuGunE10_inMINIAODSIM_199.root\u000a
p640
aV/store/user/fnenna/NuGunE10_Phase2_PUstudies/140X_mcPhase2_14TeV_NuGun_MINIAOD_gemsegm/250524_110223/0000/step3_NuGunE10_inMINIAODSIM_63.root\u000a
p641
aV/store/user/fnenna/NuGunE10_Phase2_PUstudies/140X_mcPhase2_14TeV_NuGun_MINIAOD_gemsegm/250524_110223/0000/step3_NuGunE10_inMINIAODSIM_947.root\u000a
p642
aV/store/user/fnenna/NuGunE10_Phase2_PUstudies/140X_mcPhase2_14TeV_NuGun_MINIAOD_gemsegm/250524_110223/0000/step3_NuGunE10_inMINIAODSIM_258.root\u000a
p643
aV/store/user/fnenna/NuGunE10_Phase2_PUstudies/140X_mcPhase2_14TeV_NuGun_MINIAOD_gemsegm/250524_110223/0000/step3_NuGunE10_inMINIAODSIM_919.root\u000a
p644
aV/store/user/fnenna/NuGunE10_Phase2_PUstudies/140X_mcPhase2_14TeV_NuGun_MINIAOD_gemsegm/250524_110223/0000/step3_NuGunE10_inMINIAODSIM_422.root\u000a
p645
aV/store/user/fnenna/NuGunE10_Phase2_PUstudies/140X_mcPhase2_14TeV_NuGun_MINIAOD_gemsegm/250524_110223/0000/step3_NuGunE10_inMINIAODSIM_4.root\u000a
p646
aV/store/user/fnenna/NuGunE10_Phase2_PUstudies/140X_mcPhase2_14TeV_NuGun_MINIAOD_gemsegm/250524_110223/0000/step3_NuGunE10_inMINIAODSIM_645.root\u000a
p647
aV/store/user/fnenna/NuGunE10_Phase2_PUstudies/140X_mcPhase2_14TeV_NuGun_MINIAOD_gemsegm/250524_110223/0000/step3_NuGunE10_inMINIAODSIM_532.root\u000a
p648
aV/store/user/fnenna/NuGunE10_Phase2_PUstudies/140X_mcPhase2_14TeV_NuGun_MINIAOD_gemsegm/250524_110223/0000/step3_NuGunE10_inMINIAODSIM_759.root\u000a
p649
aV/store/user/fnenna/NuGunE10_Phase2_PUstudies/140X_mcPhase2_14TeV_NuGun_MINIAOD_gemsegm/250524_110223/0000/step3_NuGunE10_inMINIAODSIM_887.root\u000a
p650
aV/store/user/fnenna/NuGunE10_Phase2_PUstudies/140X_mcPhase2_14TeV_NuGun_MINIAOD_gemsegm/250524_110223/0000/step3_NuGunE10_inMINIAODSIM_504.root\u000a
p651
aV/store/user/fnenna/NuGunE10_Phase2_PUstudies/140X_mcPhase2_14TeV_NuGun_MINIAOD_gemsegm/250524_110223/0000/step3_NuGunE10_inMINIAODSIM_284.root\u000a
p652
aV/store/user/fnenna/NuGunE10_Phase2_PUstudies/140X_mcPhase2_14TeV_NuGun_MINIAOD_gemsegm/250524_110223/0000/step3_NuGunE10_inMINIAODSIM_806.root\u000a
p653
aV/store/user/fnenna/NuGunE10_Phase2_PUstudies/140X_mcPhase2_14TeV_NuGun_MINIAOD_gemsegm/250524_110223/0000/step3_NuGunE10_inMINIAODSIM_467.root\u000a
p654
aV/store/user/fnenna/NuGunE10_Phase2_PUstudies/140X_mcPhase2_14TeV_NuGun_MINIAOD_gemsegm/250524_110223/0000/step3_NuGunE10_inMINIAODSIM_857.root\u000a
p655
aV/store/user/fnenna/NuGunE10_Phase2_PUstudies/140X_mcPhase2_14TeV_NuGun_MINIAOD_gemsegm/250524_110223/0000/step3_NuGunE10_inMINIAODSIM_446.root\u000a
p656
aV/store/user/fnenna/NuGunE10_Phase2_PUstudies/140X_mcPhase2_14TeV_NuGun_MINIAOD_gemsegm/250524_110223/0000/step3_NuGunE10_inMINIAODSIM_916.root\u000a
p657
aV/store/user/fnenna/NuGunE10_Phase2_PUstudies/140X_mcPhase2_14TeV_NuGun_MINIAOD_gemsegm/250524_110223/0000/step3_NuGunE10_inMINIAODSIM_265.root\u000a
p658
aV/store/user/fnenna/NuGunE10_Phase2_PUstudies/140X_mcPhase2_14TeV_NuGun_MINIAOD_gemsegm/250524_110223/0000/step3_NuGunE10_inMINIAODSIM_395.root\u000a
p659
aV/store/user/fnenna/NuGunE10_Phase2_PUstudies/140X_mcPhase2_14TeV_NuGun_MINIAOD_gemsegm/250524_110223/0000/step3_NuGunE10_inMINIAODSIM_176.root\u000a
p660
aV/store/user/fnenna/NuGunE10_Phase2_PUstudies/140X_mcPhase2_14TeV_NuGun_MINIAOD_gemsegm/250524_110223/0000/step3_NuGunE10_inMINIAODSIM_934.root\u000a
p661
aV/store/user/fnenna/NuGunE10_Phase2_PUstudies/140X_mcPhase2_14TeV_NuGun_MINIAOD_gemsegm/250524_110223/0000/step3_NuGunE10_inMINIAODSIM_681.root\u000a
p662
aV/store/user/fnenna/NuGunE10_Phase2_PUstudies/140X_mcPhase2_14TeV_NuGun_MINIAOD_gemsegm/250524_110223/0000/step3_NuGunE10_inMINIAODSIM_26.root\u000a
p663
aV/store/user/fnenna/NuGunE10_Phase2_PUstudies/140X_mcPhase2_14TeV_NuGun_MINIAOD_gemsegm/250524_110223/0000/step3_NuGunE10_inMINIAODSIM_331.root\u000a
p664
aV/store/user/fnenna/NuGunE10_Phase2_PUstudies/140X_mcPhase2_14TeV_NuGun_MINIAOD_gemsegm/250524_110223/0000/step3_NuGunE10_inMINIAODSIM_247.root\u000a
p665
aV/store/user/fnenna/NuGunE10_Phase2_PUstudies/140X_mcPhase2_14TeV_NuGun_MINIAOD_gemsegm/250524_110223/0000/step3_NuGunE10_inMINIAODSIM_476.root\u000a
p666
aV/store/user/fnenna/NuGunE10_Phase2_PUstudies/140X_mcPhase2_14TeV_NuGun_MINIAOD_gemsegm/250524_110223/0000/step3_NuGunE10_inMINIAODSIM_650.root\u000a
p667
aV/store/user/fnenna/NuGunE10_Phase2_PUstudies/140X_mcPhase2_14TeV_NuGun_MINIAOD_gemsegm/250524_110223/0000/step3_NuGunE10_inMINIAODSIM_60.root\u000a
p668
aV/store/user/fnenna/NuGunE10_Phase2_PUstudies/140X_mcPhase2_14TeV_NuGun_MINIAOD_gemsegm/250524_110223/0000/step3_NuGunE10_inMINIAODSIM_45.root\u000a
p669
aV/store/user/fnenna/NuGunE10_Phase2_PUstudies/140X_mcPhase2_14TeV_NuGun_MINIAOD_gemsegm/250524_110223/0000/step3_NuGunE10_inMINIAODSIM_448.root\u000a
p670
aV/store/user/fnenna/NuGunE10_Phase2_PUstudies/140X_mcPhase2_14TeV_NuGun_MINIAOD_gemsegm/250524_110223/0000/step3_NuGunE10_inMINIAODSIM_747.root\u000a
p671
aV/store/user/fnenna/NuGunE10_Phase2_PUstudies/140X_mcPhase2_14TeV_NuGun_MINIAOD_gemsegm/250524_110223/0000/step3_NuGunE10_inMINIAODSIM_229.root\u000a
p672
aV/store/user/fnenna/NuGunE10_Phase2_PUstudies/140X_mcPhase2_14TeV_NuGun_MINIAOD_gemsegm/250524_110223/0000/step3_NuGunE10_inMINIAODSIM_378.root\u000a
p673
aV/store/user/fnenna/NuGunE10_Phase2_PUstudies/140X_mcPhase2_14TeV_NuGun_MINIAOD_gemsegm/250524_110223/0000/step3_NuGunE10_inMINIAODSIM_86.root\u000a
p674
aV/store/user/fnenna/NuGunE10_Phase2_PUstudies/140X_mcPhase2_14TeV_NuGun_MINIAOD_gemsegm/250524_110223/0000/step3_NuGunE10_inMINIAODSIM_87.root\u000a
p675
aV/store/user/fnenna/NuGunE10_Phase2_PUstudies/140X_mcPhase2_14TeV_NuGun_MINIAOD_gemsegm/250524_110223/0000/step3_NuGunE10_inMINIAODSIM_726.root\u000a
p676
aV/store/user/fnenna/NuGunE10_Phase2_PUstudies/140X_mcPhase2_14TeV_NuGun_MINIAOD_gemsegm/250524_110223/0000/step3_NuGunE10_inMINIAODSIM_6.root\u000a
p677
aV/store/user/fnenna/NuGunE10_Phase2_PUstudies/140X_mcPhase2_14TeV_NuGun_MINIAOD_gemsegm/250524_110223/0000/step3_NuGunE10_inMINIAODSIM_301.root\u000a
p678
aV/store/user/fnenna/NuGunE10_Phase2_PUstudies/140X_mcPhase2_14TeV_NuGun_MINIAOD_gemsegm/250524_110223/0000/step3_NuGunE10_inMINIAODSIM_742.root\u000a
p679
aV/store/user/fnenna/NuGunE10_Phase2_PUstudies/140X_mcPhase2_14TeV_NuGun_MINIAOD_gemsegm/250524_110223/0000/step3_NuGunE10_inMINIAODSIM_484.root\u000a
p680
aV/store/user/fnenna/NuGunE10_Phase2_PUstudies/140X_mcPhase2_14TeV_NuGun_MINIAOD_gemsegm/250524_110223/0000/step3_NuGunE10_inMINIAODSIM_839.root\u000a
p681
aV/store/user/fnenna/NuGunE10_Phase2_PUstudies/140X_mcPhase2_14TeV_NuGun_MINIAOD_gemsegm/250524_110223/0000/step3_NuGunE10_inMINIAODSIM_592.root\u000a
p682
aV/store/user/fnenna/NuGunE10_Phase2_PUstudies/140X_mcPhase2_14TeV_NuGun_MINIAOD_gemsegm/250524_110223/0000/step3_NuGunE10_inMINIAODSIM_911.root\u000a
p683
aV/store/user/fnenna/NuGunE10_Phase2_PUstudies/140X_mcPhase2_14TeV_NuGun_MINIAOD_gemsegm/250524_110223/0000/step3_NuGunE10_inMINIAODSIM_116.root\u000a
p684
aV/store/user/fnenna/NuGunE10_Phase2_PUstudies/140X_mcPhase2_14TeV_NuGun_MINIAOD_gemsegm/250524_110223/0000/step3_NuGunE10_inMINIAODSIM_180.root\u000a
p685
aV/store/user/fnenna/NuGunE10_Phase2_PUstudies/140X_mcPhase2_14TeV_NuGun_MINIAOD_gemsegm/250524_110223/0000/step3_NuGunE10_inMINIAODSIM_240.root\u000a
p686
aV/store/user/fnenna/NuGunE10_Phase2_PUstudies/140X_mcPhase2_14TeV_NuGun_MINIAOD_gemsegm/250524_110223/0000/step3_NuGunE10_inMINIAODSIM_954.root\u000a
p687
aV/store/user/fnenna/NuGunE10_Phase2_PUstudies/140X_mcPhase2_14TeV_NuGun_MINIAOD_gemsegm/250524_110223/0000/step3_NuGunE10_inMINIAODSIM_260.root\u000a
p688
aV/store/user/fnenna/NuGunE10_Phase2_PUstudies/140X_mcPhase2_14TeV_NuGun_MINIAOD_gemsegm/250524_110223/0000/step3_NuGunE10_inMINIAODSIM_880.root\u000a
p689
aV/store/user/fnenna/NuGunE10_Phase2_PUstudies/140X_mcPhase2_14TeV_NuGun_MINIAOD_gemsegm/250524_110223/0000/step3_NuGunE10_inMINIAODSIM_812.root\u000a
p690
aV/store/user/fnenna/NuGunE10_Phase2_PUstudies/140X_mcPhase2_14TeV_NuGun_MINIAOD_gemsegm/250524_110223/0000/step3_NuGunE10_inMINIAODSIM_248.root\u000a
p691
aV/store/user/fnenna/NuGunE10_Phase2_PUstudies/140X_mcPhase2_14TeV_NuGun_MINIAOD_gemsegm/250524_110223/0000/step3_NuGunE10_inMINIAODSIM_547.root\u000a
p692
aV/store/user/fnenna/NuGunE10_Phase2_PUstudies/140X_mcPhase2_14TeV_NuGun_MINIAOD_gemsegm/250524_110223/0000/step3_NuGunE10_inMINIAODSIM_554.root\u000a
p693
aV/store/user/fnenna/NuGunE10_Phase2_PUstudies/140X_mcPhase2_14TeV_NuGun_MINIAOD_gemsegm/250524_110223/0000/step3_NuGunE10_inMINIAODSIM_925.root\u000a
p694
aV/store/user/fnenna/NuGunE10_Phase2_PUstudies/140X_mcPhase2_14TeV_NuGun_MINIAOD_gemsegm/250524_110223/0000/step3_NuGunE10_inMINIAODSIM_307.root\u000a
p695
aV/store/user/fnenna/NuGunE10_Phase2_PUstudies/140X_mcPhase2_14TeV_NuGun_MINIAOD_gemsegm/250524_110223/0000/step3_NuGunE10_inMINIAODSIM_203.root\u000a
p696
aV/store/user/fnenna/NuGunE10_Phase2_PUstudies/140X_mcPhase2_14TeV_NuGun_MINIAOD_gemsegm/250524_110223/0000/step3_NuGunE10_inMINIAODSIM_130.root\u000a
p697
aV/store/user/fnenna/NuGunE10_Phase2_PUstudies/140X_mcPhase2_14TeV_NuGun_MINIAOD_gemsegm/250524_110223/0000/step3_NuGunE10_inMINIAODSIM_30.root\u000a
p698
aV/store/user/fnenna/NuGunE10_Phase2_PUstudies/140X_mcPhase2_14TeV_NuGun_MINIAOD_gemsegm/250524_110223/0000/step3_NuGunE10_inMINIAODSIM_821.root\u000a
p699
aV/store/user/fnenna/NuGunE10_Phase2_PUstudies/140X_mcPhase2_14TeV_NuGun_MINIAOD_gemsegm/250524_110223/0000/step3_NuGunE10_inMINIAODSIM_845.root\u000a
p700
aV/store/user/fnenna/NuGunE10_Phase2_PUstudies/140X_mcPhase2_14TeV_NuGun_MINIAOD_gemsegm/250524_110223/0000/step3_NuGunE10_inMINIAODSIM_25.root\u000a
p701
aV/store/user/fnenna/NuGunE10_Phase2_PUstudies/140X_mcPhase2_14TeV_NuGun_MINIAOD_gemsegm/250524_110223/0000/step3_NuGunE10_inMINIAODSIM_877.root\u000a
p702
aV/store/user/fnenna/NuGunE10_Phase2_PUstudies/140X_mcPhase2_14TeV_NuGun_MINIAOD_gemsegm/250524_110223/0000/step3_NuGunE10_inMINIAODSIM_239.root\u000a
p703
aV/store/user/fnenna/NuGunE10_Phase2_PUstudies/140X_mcPhase2_14TeV_NuGun_MINIAOD_gemsegm/250524_110223/0000/step3_NuGunE10_inMINIAODSIM_381.root\u000a
p704
aV/store/user/fnenna/NuGunE10_Phase2_PUstudies/140X_mcPhase2_14TeV_NuGun_MINIAOD_gemsegm/250524_110223/0000/step3_NuGunE10_inMINIAODSIM_904.root\u000a
p705
aV/store/user/fnenna/NuGunE10_Phase2_PUstudies/140X_mcPhase2_14TeV_NuGun_MINIAOD_gemsegm/250524_110223/0000/step3_NuGunE10_inMINIAODSIM_617.root\u000a
p706
aV/store/user/fnenna/NuGunE10_Phase2_PUstudies/140X_mcPhase2_14TeV_NuGun_MINIAOD_gemsegm/250524_110223/0000/step3_NuGunE10_inMINIAODSIM_245.root\u000a
p707
aV/store/user/fnenna/NuGunE10_Phase2_PUstudies/140X_mcPhase2_14TeV_NuGun_MINIAOD_gemsegm/250524_110223/0000/step3_NuGunE10_inMINIAODSIM_57.root\u000a
p708
aV/store/user/fnenna/NuGunE10_Phase2_PUstudies/140X_mcPhase2_14TeV_NuGun_MINIAOD_gemsegm/250524_110223/0000/step3_NuGunE10_inMINIAODSIM_196.root\u000a
p709
aV/store/user/fnenna/NuGunE10_Phase2_PUstudies/140X_mcPhase2_14TeV_NuGun_MINIAOD_gemsegm/250524_110223/0000/step3_NuGunE10_inMINIAODSIM_534.root\u000a
p710
aV/store/user/fnenna/NuGunE10_Phase2_PUstudies/140X_mcPhase2_14TeV_NuGun_MINIAOD_gemsegm/250524_110223/0000/step3_NuGunE10_inMINIAODSIM_397.root\u000a
p711
aV/store/user/fnenna/NuGunE10_Phase2_PUstudies/140X_mcPhase2_14TeV_NuGun_MINIAOD_gemsegm/250524_110223/0000/step3_NuGunE10_inMINIAODSIM_224.root\u000a
p712
aV/store/user/fnenna/NuGunE10_Phase2_PUstudies/140X_mcPhase2_14TeV_NuGun_MINIAOD_gemsegm/250524_110223/0000/step3_NuGunE10_inMINIAODSIM_278.root\u000a
p713
aV/store/user/fnenna/NuGunE10_Phase2_PUstudies/140X_mcPhase2_14TeV_NuGun_MINIAOD_gemsegm/250524_110223/0000/step3_NuGunE10_inMINIAODSIM_305.root\u000a
p714
aV/store/user/fnenna/NuGunE10_Phase2_PUstudies/140X_mcPhase2_14TeV_NuGun_MINIAOD_gemsegm/250524_110223/0000/step3_NuGunE10_inMINIAODSIM_714.root\u000a
p715
aV/store/user/fnenna/NuGunE10_Phase2_PUstudies/140X_mcPhase2_14TeV_NuGun_MINIAOD_gemsegm/250524_110223/0000/step3_NuGunE10_inMINIAODSIM_507.root\u000a
p716
aV/store/user/fnenna/NuGunE10_Phase2_PUstudies/140X_mcPhase2_14TeV_NuGun_MINIAOD_gemsegm/250524_110223/0000/step3_NuGunE10_inMINIAODSIM_225.root\u000a
p717
aV/store/user/fnenna/NuGunE10_Phase2_PUstudies/140X_mcPhase2_14TeV_NuGun_MINIAOD_gemsegm/250524_110223/0000/step3_NuGunE10_inMINIAODSIM_377.root\u000a
p718
aV/store/user/fnenna/NuGunE10_Phase2_PUstudies/140X_mcPhase2_14TeV_NuGun_MINIAOD_gemsegm/250524_110223/0000/step3_NuGunE10_inMINIAODSIM_724.root\u000a
p719
aV/store/user/fnenna/NuGunE10_Phase2_PUstudies/140X_mcPhase2_14TeV_NuGun_MINIAOD_gemsegm/250524_110223/0000/step3_NuGunE10_inMINIAODSIM_118.root\u000a
p720
aV/store/user/fnenna/NuGunE10_Phase2_PUstudies/140X_mcPhase2_14TeV_NuGun_MINIAOD_gemsegm/250524_110223/0000/step3_NuGunE10_inMINIAODSIM_184.root\u000a
p721
aV/store/user/fnenna/NuGunE10_Phase2_PUstudies/140X_mcPhase2_14TeV_NuGun_MINIAOD_gemsegm/250524_110223/0000/step3_NuGunE10_inMINIAODSIM_901.root\u000a
p722
aV/store/user/fnenna/NuGunE10_Phase2_PUstudies/140X_mcPhase2_14TeV_NuGun_MINIAOD_gemsegm/250524_110223/0000/step3_NuGunE10_inMINIAODSIM_211.root\u000a
p723
aV/store/user/fnenna/NuGunE10_Phase2_PUstudies/140X_mcPhase2_14TeV_NuGun_MINIAOD_gemsegm/250524_110223/0000/step3_NuGunE10_inMINIAODSIM_404.root\u000a
p724
aV/store/user/fnenna/NuGunE10_Phase2_PUstudies/140X_mcPhase2_14TeV_NuGun_MINIAOD_gemsegm/250524_110223/0000/step3_NuGunE10_inMINIAODSIM_817.root\u000a
p725
aV/store/user/fnenna/NuGunE10_Phase2_PUstudies/140X_mcPhase2_14TeV_NuGun_MINIAOD_gemsegm/250524_110223/0000/step3_NuGunE10_inMINIAODSIM_816.root\u000a
p726
aV/store/user/fnenna/NuGunE10_Phase2_PUstudies/140X_mcPhase2_14TeV_NuGun_MINIAOD_gemsegm/250524_110223/0000/step3_NuGunE10_inMINIAODSIM_599.root\u000a
p727
aV/store/user/fnenna/NuGunE10_Phase2_PUstudies/140X_mcPhase2_14TeV_NuGun_MINIAOD_gemsegm/250524_110223/0000/step3_NuGunE10_inMINIAODSIM_564.root\u000a
p728
aV/store/user/fnenna/NuGunE10_Phase2_PUstudies/140X_mcPhase2_14TeV_NuGun_MINIAOD_gemsegm/250524_110223/0000/step3_NuGunE10_inMINIAODSIM_754.root\u000a
p729
aV/store/user/fnenna/NuGunE10_Phase2_PUstudies/140X_mcPhase2_14TeV_NuGun_MINIAOD_gemsegm/250524_110223/0000/step3_NuGunE10_inMINIAODSIM_559.root\u000a
p730
aV/store/user/fnenna/NuGunE10_Phase2_PUstudies/140X_mcPhase2_14TeV_NuGun_MINIAOD_gemsegm/250524_110223/0000/step3_NuGunE10_inMINIAODSIM_463.root\u000a
p731
aV/store/user/fnenna/NuGunE10_Phase2_PUstudies/140X_mcPhase2_14TeV_NuGun_MINIAOD_gemsegm/250524_110223/0000/step3_NuGunE10_inMINIAODSIM_100.root\u000a
p732
aV/store/user/fnenna/NuGunE10_Phase2_PUstudies/140X_mcPhase2_14TeV_NuGun_MINIAOD_gemsegm/250524_110223/0000/step3_NuGunE10_inMINIAODSIM_997.root\u000a
p733
aV/store/user/fnenna/NuGunE10_Phase2_PUstudies/140X_mcPhase2_14TeV_NuGun_MINIAOD_gemsegm/250524_110223/0000/step3_NuGunE10_inMINIAODSIM_214.root\u000a
p734
aV/store/user/fnenna/NuGunE10_Phase2_PUstudies/140X_mcPhase2_14TeV_NuGun_MINIAOD_gemsegm/250524_110223/0000/step3_NuGunE10_inMINIAODSIM_917.root\u000a
p735
aV/store/user/fnenna/NuGunE10_Phase2_PUstudies/140X_mcPhase2_14TeV_NuGun_MINIAOD_gemsegm/250524_110223/0000/step3_NuGunE10_inMINIAODSIM_249.root\u000a
p736
aV/store/user/fnenna/NuGunE10_Phase2_PUstudies/140X_mcPhase2_14TeV_NuGun_MINIAOD_gemsegm/250524_110223/0000/step3_NuGunE10_inMINIAODSIM_863.root\u000a
p737
aV/store/user/fnenna/NuGunE10_Phase2_PUstudies/140X_mcPhase2_14TeV_NuGun_MINIAOD_gemsegm/250524_110223/0000/step3_NuGunE10_inMINIAODSIM_375.root\u000a
p738
aV/store/user/fnenna/NuGunE10_Phase2_PUstudies/140X_mcPhase2_14TeV_NuGun_MINIAOD_gemsegm/250524_110223/0000/step3_NuGunE10_inMINIAODSIM_102.root\u000a
p739
aV/store/user/fnenna/NuGunE10_Phase2_PUstudies/140X_mcPhase2_14TeV_NuGun_MINIAOD_gemsegm/250524_110223/0000/step3_NuGunE10_inMINIAODSIM_975.root\u000a
p740
aV/store/user/fnenna/NuGunE10_Phase2_PUstudies/140X_mcPhase2_14TeV_NuGun_MINIAOD_gemsegm/250524_110223/0000/step3_NuGunE10_inMINIAODSIM_932.root\u000a
p741
aV/store/user/fnenna/NuGunE10_Phase2_PUstudies/140X_mcPhase2_14TeV_NuGun_MINIAOD_gemsegm/250524_110223/0000/step3_NuGunE10_inMINIAODSIM_14.root\u000a
p742
aV/store/user/fnenna/NuGunE10_Phase2_PUstudies/140X_mcPhase2_14TeV_NuGun_MINIAOD_gemsegm/250524_110223/0000/step3_NuGunE10_inMINIAODSIM_727.root\u000a
p743
aV/store/user/fnenna/NuGunE10_Phase2_PUstudies/140X_mcPhase2_14TeV_NuGun_MINIAOD_gemsegm/250524_110223/0000/step3_NuGunE10_inMINIAODSIM_697.root\u000a
p744
aV/store/user/fnenna/NuGunE10_Phase2_PUstudies/140X_mcPhase2_14TeV_NuGun_MINIAOD_gemsegm/250524_110223/0000/step3_NuGunE10_inMINIAODSIM_477.root\u000a
p745
aV/store/user/fnenna/NuGunE10_Phase2_PUstudies/140X_mcPhase2_14TeV_NuGun_MINIAOD_gemsegm/250524_110223/0000/step3_NuGunE10_inMINIAODSIM_831.root\u000a
p746
aV/store/user/fnenna/NuGunE10_Phase2_PUstudies/140X_mcPhase2_14TeV_NuGun_MINIAOD_gemsegm/250524_110223/0000/step3_NuGunE10_inMINIAODSIM_148.root\u000a
p747
aV/store/user/fnenna/NuGunE10_Phase2_PUstudies/140X_mcPhase2_14TeV_NuGun_MINIAOD_gemsegm/250524_110223/0000/step3_NuGunE10_inMINIAODSIM_192.root\u000a
p748
aV/store/user/fnenna/NuGunE10_Phase2_PUstudies/140X_mcPhase2_14TeV_NuGun_MINIAOD_gemsegm/250524_110223/0000/step3_NuGunE10_inMINIAODSIM_16.root\u000a
p749
aV/store/user/fnenna/NuGunE10_Phase2_PUstudies/140X_mcPhase2_14TeV_NuGun_MINIAOD_gemsegm/250524_110223/0000/step3_NuGunE10_inMINIAODSIM_568.root\u000a
p750
aV/store/user/fnenna/NuGunE10_Phase2_PUstudies/140X_mcPhase2_14TeV_NuGun_MINIAOD_gemsegm/250524_110223/0000/step3_NuGunE10_inMINIAODSIM_732.root\u000a
p751
aV/store/user/fnenna/NuGunE10_Phase2_PUstudies/140X_mcPhase2_14TeV_NuGun_MINIAOD_gemsegm/250524_110223/0000/step3_NuGunE10_inMINIAODSIM_108.root\u000a
p752
aV/store/user/fnenna/NuGunE10_Phase2_PUstudies/140X_mcPhase2_14TeV_NuGun_MINIAOD_gemsegm/250524_110223/0000/step3_NuGunE10_inMINIAODSIM_918.root\u000a
p753
aV/store/user/fnenna/NuGunE10_Phase2_PUstudies/140X_mcPhase2_14TeV_NuGun_MINIAOD_gemsegm/250524_110223/0000/step3_NuGunE10_inMINIAODSIM_691.root\u000a
p754
aV/store/user/fnenna/NuGunE10_Phase2_PUstudies/140X_mcPhase2_14TeV_NuGun_MINIAOD_gemsegm/250524_110223/0000/step3_NuGunE10_inMINIAODSIM_847.root\u000a
p755
aV/store/user/fnenna/NuGunE10_Phase2_PUstudies/140X_mcPhase2_14TeV_NuGun_MINIAOD_gemsegm/250524_110223/0000/step3_NuGunE10_inMINIAODSIM_19.root\u000a
p756
aV/store/user/fnenna/NuGunE10_Phase2_PUstudies/140X_mcPhase2_14TeV_NuGun_MINIAOD_gemsegm/250524_110223/0000/step3_NuGunE10_inMINIAODSIM_987.root\u000a
p757
aV/store/user/fnenna/NuGunE10_Phase2_PUstudies/140X_mcPhase2_14TeV_NuGun_MINIAOD_gemsegm/250524_110223/0000/step3_NuGunE10_inMINIAODSIM_94.root\u000a
p758
aV/store/user/fnenna/NuGunE10_Phase2_PUstudies/140X_mcPhase2_14TeV_NuGun_MINIAOD_gemsegm/250524_110223/0000/step3_NuGunE10_inMINIAODSIM_396.root\u000a
p759
aV/store/user/fnenna/NuGunE10_Phase2_PUstudies/140X_mcPhase2_14TeV_NuGun_MINIAOD_gemsegm/250524_110223/0000/step3_NuGunE10_inMINIAODSIM_95.root\u000a
p760
aV/store/user/fnenna/NuGunE10_Phase2_PUstudies/140X_mcPhase2_14TeV_NuGun_MINIAOD_gemsegm/250524_110223/0000/step3_NuGunE10_inMINIAODSIM_647.root\u000a
p761
aV/store/user/fnenna/NuGunE10_Phase2_PUstudies/140X_mcPhase2_14TeV_NuGun_MINIAOD_gemsegm/250524_110223/0000/step3_NuGunE10_inMINIAODSIM_900.root\u000a
p762
aV/store/user/fnenna/NuGunE10_Phase2_PUstudies/140X_mcPhase2_14TeV_NuGun_MINIAOD_gemsegm/250524_110223/0000/step3_NuGunE10_inMINIAODSIM_718.root\u000a
p763
aV/store/user/fnenna/NuGunE10_Phase2_PUstudies/140X_mcPhase2_14TeV_NuGun_MINIAOD_gemsegm/250524_110223/0000/step3_NuGunE10_inMINIAODSIM_620.root\u000a
p764
aV/store/user/fnenna/NuGunE10_Phase2_PUstudies/140X_mcPhase2_14TeV_NuGun_MINIAOD_gemsegm/250524_110223/0000/step3_NuGunE10_inMINIAODSIM_438.root\u000a
p765
aV/store/user/fnenna/NuGunE10_Phase2_PUstudies/140X_mcPhase2_14TeV_NuGun_MINIAOD_gemsegm/250524_110223/0000/step3_NuGunE10_inMINIAODSIM_974.root\u000a
p766
aV/store/user/fnenna/NuGunE10_Phase2_PUstudies/140X_mcPhase2_14TeV_NuGun_MINIAOD_gemsegm/250524_110223/0000/step3_NuGunE10_inMINIAODSIM_570.root\u000a
p767
aV/store/user/fnenna/NuGunE10_Phase2_PUstudies/140X_mcPhase2_14TeV_NuGun_MINIAOD_gemsegm/250524_110223/0000/step3_NuGunE10_inMINIAODSIM_363.root\u000a
p768
aV/store/user/fnenna/NuGunE10_Phase2_PUstudies/140X_mcPhase2_14TeV_NuGun_MINIAOD_gemsegm/250524_110223/0000/step3_NuGunE10_inMINIAODSIM_696.root\u000a
p769
aV/store/user/fnenna/NuGunE10_Phase2_PUstudies/140X_mcPhase2_14TeV_NuGun_MINIAOD_gemsegm/250524_110223/0000/step3_NuGunE10_inMINIAODSIM_262.root\u000a
p770
aV/store/user/fnenna/NuGunE10_Phase2_PUstudies/140X_mcPhase2_14TeV_NuGun_MINIAOD_gemsegm/250524_110223/0000/step3_NuGunE10_inMINIAODSIM_874.root\u000a
p771
aV/store/user/fnenna/NuGunE10_Phase2_PUstudies/140X_mcPhase2_14TeV_NuGun_MINIAOD_gemsegm/250524_110223/0000/step3_NuGunE10_inMINIAODSIM_44.root\u000a
p772
aV/store/user/fnenna/NuGunE10_Phase2_PUstudies/140X_mcPhase2_14TeV_NuGun_MINIAOD_gemsegm/250524_110223/0000/step3_NuGunE10_inMINIAODSIM_286.root\u000a
p773
aV/store/user/fnenna/NuGunE10_Phase2_PUstudies/140X_mcPhase2_14TeV_NuGun_MINIAOD_gemsegm/250524_110223/0000/step3_NuGunE10_inMINIAODSIM_354.root\u000a
p774
aV/store/user/fnenna/NuGunE10_Phase2_PUstudies/140X_mcPhase2_14TeV_NuGun_MINIAOD_gemsegm/250524_110223/0000/step3_NuGunE10_inMINIAODSIM_734.root\u000a
p775
aV/store/user/fnenna/NuGunE10_Phase2_PUstudies/140X_mcPhase2_14TeV_NuGun_MINIAOD_gemsegm/250524_110223/0000/step3_NuGunE10_inMINIAODSIM_80.root\u000a
p776
aV/store/user/fnenna/NuGunE10_Phase2_PUstudies/140X_mcPhase2_14TeV_NuGun_MINIAOD_gemsegm/250524_110223/0000/step3_NuGunE10_inMINIAODSIM_641.root\u000a
p777
aV/store/user/fnenna/NuGunE10_Phase2_PUstudies/140X_mcPhase2_14TeV_NuGun_MINIAOD_gemsegm/250524_110223/0000/step3_NuGunE10_inMINIAODSIM_540.root\u000a
p778
aV/store/user/fnenna/NuGunE10_Phase2_PUstudies/140X_mcPhase2_14TeV_NuGun_MINIAOD_gemsegm/250524_110223/0000/step3_NuGunE10_inMINIAODSIM_708.root\u000a
p779
aV/store/user/fnenna/NuGunE10_Phase2_PUstudies/140X_mcPhase2_14TeV_NuGun_MINIAOD_gemsegm/250524_110223/0000/step3_NuGunE10_inMINIAODSIM_29.root\u000a
p780
aV/store/user/fnenna/NuGunE10_Phase2_PUstudies/140X_mcPhase2_14TeV_NuGun_MINIAOD_gemsegm/250524_110223/0000/step3_NuGunE10_inMINIAODSIM_832.root\u000a
p781
aV/store/user/fnenna/NuGunE10_Phase2_PUstudies/140X_mcPhase2_14TeV_NuGun_MINIAOD_gemsegm/250524_110223/0000/step3_NuGunE10_inMINIAODSIM_92.root\u000a
p782
aV/store/user/fnenna/NuGunE10_Phase2_PUstudies/140X_mcPhase2_14TeV_NuGun_MINIAOD_gemsegm/250524_110223/0000/step3_NuGunE10_inMINIAODSIM_528.root\u000a
p783
aV/store/user/fnenna/NuGunE10_Phase2_PUstudies/140X_mcPhase2_14TeV_NuGun_MINIAOD_gemsegm/250524_110223/0000/step3_NuGunE10_inMINIAODSIM_648.root\u000a
p784
aV/store/user/fnenna/NuGunE10_Phase2_PUstudies/140X_mcPhase2_14TeV_NuGun_MINIAOD_gemsegm/250524_110223/0000/step3_NuGunE10_inMINIAODSIM_639.root\u000a
p785
aV/store/user/fnenna/NuGunE10_Phase2_PUstudies/140X_mcPhase2_14TeV_NuGun_MINIAOD_gemsegm/250524_110223/0000/step3_NuGunE10_inMINIAODSIM_685.root\u000a
p786
aV/store/user/fnenna/NuGunE10_Phase2_PUstudies/140X_mcPhase2_14TeV_NuGun_MINIAOD_gemsegm/250524_110223/0000/step3_NuGunE10_inMINIAODSIM_173.root\u000a
p787
aV/store/user/fnenna/NuGunE10_Phase2_PUstudies/140X_mcPhase2_14TeV_NuGun_MINIAOD_gemsegm/250524_110223/0000/step3_NuGunE10_inMINIAODSIM_905.root\u000a
p788
aV/store/user/fnenna/NuGunE10_Phase2_PUstudies/140X_mcPhase2_14TeV_NuGun_MINIAOD_gemsegm/250524_110223/0000/step3_NuGunE10_inMINIAODSIM_291.root\u000a
p789
aV/store/user/fnenna/NuGunE10_Phase2_PUstudies/140X_mcPhase2_14TeV_NuGun_MINIAOD_gemsegm/250524_110223/0000/step3_NuGunE10_inMINIAODSIM_756.root\u000a
p790
aV/store/user/fnenna/NuGunE10_Phase2_PUstudies/140X_mcPhase2_14TeV_NuGun_MINIAOD_gemsegm/250524_110223/0000/step3_NuGunE10_inMINIAODSIM_741.root\u000a
p791
aV/store/user/fnenna/NuGunE10_Phase2_PUstudies/140X_mcPhase2_14TeV_NuGun_MINIAOD_gemsegm/250524_110223/0000/step3_NuGunE10_inMINIAODSIM_910.root\u000a
p792
aV/store/user/fnenna/NuGunE10_Phase2_PUstudies/140X_mcPhase2_14TeV_NuGun_MINIAOD_gemsegm/250524_110223/0000/step3_NuGunE10_inMINIAODSIM_432.root\u000a
p793
aV/store/user/fnenna/NuGunE10_Phase2_PUstudies/140X_mcPhase2_14TeV_NuGun_MINIAOD_gemsegm/250524_110223/0000/step3_NuGunE10_inMINIAODSIM_220.root\u000a
p794
aV/store/user/fnenna/NuGunE10_Phase2_PUstudies/140X_mcPhase2_14TeV_NuGun_MINIAOD_gemsegm/250524_110223/0000/step3_NuGunE10_inMINIAODSIM_412.root\u000a
p795
aV/store/user/fnenna/NuGunE10_Phase2_PUstudies/140X_mcPhase2_14TeV_NuGun_MINIAOD_gemsegm/250524_110223/0000/step3_NuGunE10_inMINIAODSIM_238.root\u000a
p796
aV/store/user/fnenna/NuGunE10_Phase2_PUstudies/140X_mcPhase2_14TeV_NuGun_MINIAOD_gemsegm/250524_110223/0000/step3_NuGunE10_inMINIAODSIM_147.root\u000a
p797
aV/store/user/fnenna/NuGunE10_Phase2_PUstudies/140X_mcPhase2_14TeV_NuGun_MINIAOD_gemsegm/250524_110223/0000/step3_NuGunE10_inMINIAODSIM_166.root\u000a
p798
aV/store/user/fnenna/NuGunE10_Phase2_PUstudies/140X_mcPhase2_14TeV_NuGun_MINIAOD_gemsegm/250524_110223/0000/step3_NuGunE10_inMINIAODSIM_841.root\u000a
p799
aV/store/user/fnenna/NuGunE10_Phase2_PUstudies/140X_mcPhase2_14TeV_NuGun_MINIAOD_gemsegm/250524_110223/0000/step3_NuGunE10_inMINIAODSIM_840.root\u000a
p800
aV/store/user/fnenna/NuGunE10_Phase2_PUstudies/140X_mcPhase2_14TeV_NuGun_MINIAOD_gemsegm/250524_110223/0000/step3_NuGunE10_inMINIAODSIM_362.root\u000a
p801
aV/store/user/fnenna/NuGunE10_Phase2_PUstudies/140X_mcPhase2_14TeV_NuGun_MINIAOD_gemsegm/250524_110223/0000/step3_NuGunE10_inMINIAODSIM_993.root\u000a
p802
aV/store/user/fnenna/NuGunE10_Phase2_PUstudies/140X_mcPhase2_14TeV_NuGun_MINIAOD_gemsegm/250524_110223/0000/step3_NuGunE10_inMINIAODSIM_219.root\u000a
p803
aV/store/user/fnenna/NuGunE10_Phase2_PUstudies/140X_mcPhase2_14TeV_NuGun_MINIAOD_gemsegm/250524_110223/0000/step3_NuGunE10_inMINIAODSIM_753.root\u000a
p804
aV/store/user/fnenna/NuGunE10_Phase2_PUstudies/140X_mcPhase2_14TeV_NuGun_MINIAOD_gemsegm/250524_110223/0000/step3_NuGunE10_inMINIAODSIM_343.root\u000a
p805
aV/store/user/fnenna/NuGunE10_Phase2_PUstudies/140X_mcPhase2_14TeV_NuGun_MINIAOD_gemsegm/250524_110223/0000/step3_NuGunE10_inMINIAODSIM_927.root\u000a
p806
aV/store/user/fnenna/NuGunE10_Phase2_PUstudies/140X_mcPhase2_14TeV_NuGun_MINIAOD_gemsegm/250524_110223/0000/step3_NuGunE10_inMINIAODSIM_120.root\u000a
p807
aV/store/user/fnenna/NuGunE10_Phase2_PUstudies/140X_mcPhase2_14TeV_NuGun_MINIAOD_gemsegm/250524_110223/0000/step3_NuGunE10_inMINIAODSIM_172.root\u000a
p808
aV/store/user/fnenna/NuGunE10_Phase2_PUstudies/140X_mcPhase2_14TeV_NuGun_MINIAOD_gemsegm/250524_110223/0000/step3_NuGunE10_inMINIAODSIM_74.root\u000a
p809
aV/store/user/fnenna/NuGunE10_Phase2_PUstudies/140X_mcPhase2_14TeV_NuGun_MINIAOD_gemsegm/250524_110223/0000/step3_NuGunE10_inMINIAODSIM_962.root\u000a
p810
aV/store/user/fnenna/NuGunE10_Phase2_PUstudies/140X_mcPhase2_14TeV_NuGun_MINIAOD_gemsegm/250524_110223/0000/step3_NuGunE10_inMINIAODSIM_767.root\u000a
p811
aV/store/user/fnenna/NuGunE10_Phase2_PUstudies/140X_mcPhase2_14TeV_NuGun_MINIAOD_gemsegm/250524_110223/0000/step3_NuGunE10_inMINIAODSIM_128.root\u000a
p812
aV/store/user/fnenna/NuGunE10_Phase2_PUstudies/140X_mcPhase2_14TeV_NuGun_MINIAOD_gemsegm/250524_110223/0000/step3_NuGunE10_inMINIAODSIM_780.root\u000a
p813
aV/store/user/fnenna/NuGunE10_Phase2_PUstudies/140X_mcPhase2_14TeV_NuGun_MINIAOD_gemsegm/250524_110223/0000/step3_NuGunE10_inMINIAODSIM_185.root\u000a
p814
aV/store/user/fnenna/NuGunE10_Phase2_PUstudies/140X_mcPhase2_14TeV_NuGun_MINIAOD_gemsegm/250524_110223/0000/step3_NuGunE10_inMINIAODSIM_215.root\u000a
p815
aV/store/user/fnenna/NuGunE10_Phase2_PUstudies/140X_mcPhase2_14TeV_NuGun_MINIAOD_gemsegm/250524_110223/0000/step3_NuGunE10_inMINIAODSIM_183.root\u000a
p816
aV/store/user/fnenna/NuGunE10_Phase2_PUstudies/140X_mcPhase2_14TeV_NuGun_MINIAOD_gemsegm/250524_110223/0000/step3_NuGunE10_inMINIAODSIM_188.root\u000a
p817
aV/store/user/fnenna/NuGunE10_Phase2_PUstudies/140X_mcPhase2_14TeV_NuGun_MINIAOD_gemsegm/250524_110223/0000/step3_NuGunE10_inMINIAODSIM_902.root\u000a
p818
aV/store/user/fnenna/NuGunE10_Phase2_PUstudies/140X_mcPhase2_14TeV_NuGun_MINIAOD_gemsegm/250524_110223/0000/step3_NuGunE10_inMINIAODSIM_368.root\u000a
p819
aV/store/user/fnenna/NuGunE10_Phase2_PUstudies/140X_mcPhase2_14TeV_NuGun_MINIAOD_gemsegm/250524_110223/0000/step3_NuGunE10_inMINIAODSIM_615.root\u000a
p820
aV/store/user/fnenna/NuGunE10_Phase2_PUstudies/140X_mcPhase2_14TeV_NuGun_MINIAOD_gemsegm/250524_110223/0000/step3_NuGunE10_inMINIAODSIM_682.root\u000a
p821
aV/store/user/fnenna/NuGunE10_Phase2_PUstudies/140X_mcPhase2_14TeV_NuGun_MINIAOD_gemsegm/250524_110223/0000/step3_NuGunE10_inMINIAODSIM_28.root\u000a
p822
aV/store/user/fnenna/NuGunE10_Phase2_PUstudies/140X_mcPhase2_14TeV_NuGun_MINIAOD_gemsegm/250524_110223/0000/step3_NuGunE10_inMINIAODSIM_309.root\u000a
p823
aV/store/user/fnenna/NuGunE10_Phase2_PUstudies/140X_mcPhase2_14TeV_NuGun_MINIAOD_gemsegm/250524_110223/0000/step3_NuGunE10_inMINIAODSIM_7.root\u000a
p824
aV/store/user/fnenna/NuGunE10_Phase2_PUstudies/140X_mcPhase2_14TeV_NuGun_MINIAOD_gemsegm/250524_110223/0000/step3_NuGunE10_inMINIAODSIM_27.root\u000a
p825
aV/store/user/fnenna/NuGunE10_Phase2_PUstudies/140X_mcPhase2_14TeV_NuGun_MINIAOD_gemsegm/250524_110223/0000/step3_NuGunE10_inMINIAODSIM_549.root\u000a
p826
aV/store/user/fnenna/NuGunE10_Phase2_PUstudies/140X_mcPhase2_14TeV_NuGun_MINIAOD_gemsegm/250524_110223/0000/step3_NuGunE10_inMINIAODSIM_47.root\u000a
p827
aV/store/user/fnenna/NuGunE10_Phase2_PUstudies/140X_mcPhase2_14TeV_NuGun_MINIAOD_gemsegm/250524_110223/0000/step3_NuGunE10_inMINIAODSIM_469.root\u000a
p828
aV/store/user/fnenna/NuGunE10_Phase2_PUstudies/140X_mcPhase2_14TeV_NuGun_MINIAOD_gemsegm/250524_110223/0000/step3_NuGunE10_inMINIAODSIM_879.root\u000a
p829
aV/store/user/fnenna/NuGunE10_Phase2_PUstudies/140X_mcPhase2_14TeV_NuGun_MINIAOD_gemsegm/250524_110223/0000/step3_NuGunE10_inMINIAODSIM_71.root\u000a
p830
aV/store/user/fnenna/NuGunE10_Phase2_PUstudies/140X_mcPhase2_14TeV_NuGun_MINIAOD_gemsegm/250524_110223/0000/step3_NuGunE10_inMINIAODSIM_733.root\u000a
p831
aV/store/user/fnenna/NuGunE10_Phase2_PUstudies/140X_mcPhase2_14TeV_NuGun_MINIAOD_gemsegm/250524_110223/0000/step3_NuGunE10_inMINIAODSIM_56.root\u000a
p832
aV/store/user/fnenna/NuGunE10_Phase2_PUstudies/140X_mcPhase2_14TeV_NuGun_MINIAOD_gemsegm/250524_110223/0000/step3_NuGunE10_inMINIAODSIM_389.root\u000a
p833
aV/store/user/fnenna/NuGunE10_Phase2_PUstudies/140X_mcPhase2_14TeV_NuGun_MINIAOD_gemsegm/250524_110223/0000/step3_NuGunE10_inMINIAODSIM_66.root\u000a
p834
aV/store/user/fnenna/NuGunE10_Phase2_PUstudies/140X_mcPhase2_14TeV_NuGun_MINIAOD_gemsegm/250524_110223/0000/step3_NuGunE10_inMINIAODSIM_153.root\u000a
p835
aV/store/user/fnenna/NuGunE10_Phase2_PUstudies/140X_mcPhase2_14TeV_NuGun_MINIAOD_gemsegm/250524_110223/0000/step3_NuGunE10_inMINIAODSIM_462.root\u000a
p836
aV/store/user/fnenna/NuGunE10_Phase2_PUstudies/140X_mcPhase2_14TeV_NuGun_MINIAOD_gemsegm/250524_110223/0000/step3_NuGunE10_inMINIAODSIM_640.root\u000a
p837
aV/store/user/fnenna/NuGunE10_Phase2_PUstudies/140X_mcPhase2_14TeV_NuGun_MINIAOD_gemsegm/250524_110223/0000/step3_NuGunE10_inMINIAODSIM_435.root\u000a
p838
aV/store/user/fnenna/NuGunE10_Phase2_PUstudies/140X_mcPhase2_14TeV_NuGun_MINIAOD_gemsegm/250524_110223/0000/step3_NuGunE10_inMINIAODSIM_97.root\u000a
p839
aV/store/user/fnenna/NuGunE10_Phase2_PUstudies/140X_mcPhase2_14TeV_NuGun_MINIAOD_gemsegm/250524_110223/0000/step3_NuGunE10_inMINIAODSIM_783.root\u000a
p840
aV/store/user/fnenna/NuGunE10_Phase2_PUstudies/140X_mcPhase2_14TeV_NuGun_MINIAOD_gemsegm/250524_110223/0000/step3_NuGunE10_inMINIAODSIM_652.root\u000a
p841
aV/store/user/fnenna/NuGunE10_Phase2_PUstudies/140X_mcPhase2_14TeV_NuGun_MINIAOD_gemsegm/250524_110223/0000/step3_NuGunE10_inMINIAODSIM_35.root\u000a
p842
aV/store/user/fnenna/NuGunE10_Phase2_PUstudies/140X_mcPhase2_14TeV_NuGun_MINIAOD_gemsegm/250524_110223/0000/step3_NuGunE10_inMINIAODSIM_784.root\u000a
p843
aV/store/user/fnenna/NuGunE10_Phase2_PUstudies/140X_mcPhase2_14TeV_NuGun_MINIAOD_gemsegm/250524_110223/0000/step3_NuGunE10_inMINIAODSIM_466.root\u000a
p844
aV/store/user/fnenna/NuGunE10_Phase2_PUstudies/140X_mcPhase2_14TeV_NuGun_MINIAOD_gemsegm/250524_110223/0000/step3_NuGunE10_inMINIAODSIM_786.root\u000a
p845
aV/store/user/fnenna/NuGunE10_Phase2_PUstudies/140X_mcPhase2_14TeV_NuGun_MINIAOD_gemsegm/250524_110223/0000/step3_NuGunE10_inMINIAODSIM_824.root\u000a
p846
aV/store/user/fnenna/NuGunE10_Phase2_PUstudies/140X_mcPhase2_14TeV_NuGun_MINIAOD_gemsegm/250524_110223/0000/step3_NuGunE10_inMINIAODSIM_850.root\u000a
p847
aV/store/user/fnenna/NuGunE10_Phase2_PUstudies/140X_mcPhase2_14TeV_NuGun_MINIAOD_gemsegm/250524_110223/0000/step3_NuGunE10_inMINIAODSIM_293.root\u000a
p848
aV/store/user/fnenna/NuGunE10_Phase2_PUstudies/140X_mcPhase2_14TeV_NuGun_MINIAOD_gemsegm/250524_110223/0000/step3_NuGunE10_inMINIAODSIM_739.root\u000a
p849
aV/store/user/fnenna/NuGunE10_Phase2_PUstudies/140X_mcPhase2_14TeV_NuGun_MINIAOD_gemsegm/250524_110223/0000/step3_NuGunE10_inMINIAODSIM_292.root\u000a
p850
aV/store/user/fnenna/NuGunE10_Phase2_PUstudies/140X_mcPhase2_14TeV_NuGun_MINIAOD_gemsegm/250524_110223/0000/step3_NuGunE10_inMINIAODSIM_792.root\u000a
p851
aV/store/user/fnenna/NuGunE10_Phase2_PUstudies/140X_mcPhase2_14TeV_NuGun_MINIAOD_gemsegm/250524_110223/0000/step3_NuGunE10_inMINIAODSIM_37.root\u000a
p852
aV/store/user/fnenna/NuGunE10_Phase2_PUstudies/140X_mcPhase2_14TeV_NuGun_MINIAOD_gemsegm/250524_110223/0000/step3_NuGunE10_inMINIAODSIM_474.root\u000a
p853
aV/store/user/fnenna/NuGunE10_Phase2_PUstudies/140X_mcPhase2_14TeV_NuGun_MINIAOD_gemsegm/250524_110223/0000/step3_NuGunE10_inMINIAODSIM_632.root\u000a
p854
aV/store/user/fnenna/NuGunE10_Phase2_PUstudies/140X_mcPhase2_14TeV_NuGun_MINIAOD_gemsegm/250524_110223/0000/step3_NuGunE10_inMINIAODSIM_454.root\u000a
p855
aV/store/user/fnenna/NuGunE10_Phase2_PUstudies/140X_mcPhase2_14TeV_NuGun_MINIAOD_gemsegm/250524_110223/0000/step3_NuGunE10_inMINIAODSIM_588.root\u000a
p856
aV/store/user/fnenna/NuGunE10_Phase2_PUstudies/140X_mcPhase2_14TeV_NuGun_MINIAOD_gemsegm/250524_110223/0000/step3_NuGunE10_inMINIAODSIM_722.root\u000a
p857
aV/store/user/fnenna/NuGunE10_Phase2_PUstudies/140X_mcPhase2_14TeV_NuGun_MINIAOD_gemsegm/250524_110223/0000/step3_NuGunE10_inMINIAODSIM_328.root\u000a
p858
aV/store/user/fnenna/NuGunE10_Phase2_PUstudies/140X_mcPhase2_14TeV_NuGun_MINIAOD_gemsegm/250524_110223/0000/step3_NuGunE10_inMINIAODSIM_436.root\u000a
p859
aV/store/user/fnenna/NuGunE10_Phase2_PUstudies/140X_mcPhase2_14TeV_NuGun_MINIAOD_gemsegm/250524_110223/0000/step3_NuGunE10_inMINIAODSIM_452.root\u000a
p860
aV/store/user/fnenna/NuGunE10_Phase2_PUstudies/140X_mcPhase2_14TeV_NuGun_MINIAOD_gemsegm/250524_110223/0000/step3_NuGunE10_inMINIAODSIM_571.root\u000a
p861
aV/store/user/fnenna/NuGunE10_Phase2_PUstudies/140X_mcPhase2_14TeV_NuGun_MINIAOD_gemsegm/250524_110223/0000/step3_NuGunE10_inMINIAODSIM_853.root\u000a
p862
aV/store/user/fnenna/NuGunE10_Phase2_PUstudies/140X_mcPhase2_14TeV_NuGun_MINIAOD_gemsegm/250524_110223/0000/step3_NuGunE10_inMINIAODSIM_276.root\u000a
p863
aV/store/user/fnenna/NuGunE10_Phase2_PUstudies/140X_mcPhase2_14TeV_NuGun_MINIAOD_gemsegm/250524_110223/0000/step3_NuGunE10_inMINIAODSIM_36.root\u000a
p864
aV/store/user/fnenna/NuGunE10_Phase2_PUstudies/140X_mcPhase2_14TeV_NuGun_MINIAOD_gemsegm/250524_110223/0000/step3_NuGunE10_inMINIAODSIM_894.root\u000a
p865
aV/store/user/fnenna/NuGunE10_Phase2_PUstudies/140X_mcPhase2_14TeV_NuGun_MINIAOD_gemsegm/250524_110223/0000/step3_NuGunE10_inMINIAODSIM_141.root\u000a
p866
aV/store/user/fnenna/NuGunE10_Phase2_PUstudies/140X_mcPhase2_14TeV_NuGun_MINIAOD_gemsegm/250524_110223/0000/step3_NuGunE10_inMINIAODSIM_834.root\u000a
p867
aV/store/user/fnenna/NuGunE10_Phase2_PUstudies/140X_mcPhase2_14TeV_NuGun_MINIAOD_gemsegm/250524_110223/0000/step3_NuGunE10_inMINIAODSIM_680.root\u000a
p868
aV/store/user/fnenna/NuGunE10_Phase2_PUstudies/140X_mcPhase2_14TeV_NuGun_MINIAOD_gemsegm/250524_110223/0000/step3_NuGunE10_inMINIAODSIM_353.root\u000a
p869
aV/store/user/fnenna/NuGunE10_Phase2_PUstudies/140X_mcPhase2_14TeV_NuGun_MINIAOD_gemsegm/250524_110223/0000/step3_NuGunE10_inMINIAODSIM_254.root\u000a
p870
aV/store/user/fnenna/NuGunE10_Phase2_PUstudies/140X_mcPhase2_14TeV_NuGun_MINIAOD_gemsegm/250524_110223/0000/step3_NuGunE10_inMINIAODSIM_690.root\u000a
p871
aV/store/user/fnenna/NuGunE10_Phase2_PUstudies/140X_mcPhase2_14TeV_NuGun_MINIAOD_gemsegm/250524_110223/0000/step3_NuGunE10_inMINIAODSIM_990.root\u000a
p872
aV/store/user/fnenna/NuGunE10_Phase2_PUstudies/140X_mcPhase2_14TeV_NuGun_MINIAOD_gemsegm/250524_110223/0000/step3_NuGunE10_inMINIAODSIM_815.root\u000a
p873
aV/store/user/fnenna/NuGunE10_Phase2_PUstudies/140X_mcPhase2_14TeV_NuGun_MINIAOD_gemsegm/250524_110223/0000/step3_NuGunE10_inMINIAODSIM_982.root\u000a
p874
aV/store/user/fnenna/NuGunE10_Phase2_PUstudies/140X_mcPhase2_14TeV_NuGun_MINIAOD_gemsegm/250524_110223/0000/step3_NuGunE10_inMINIAODSIM_154.root\u000a
p875
aV/store/user/fnenna/NuGunE10_Phase2_PUstudies/140X_mcPhase2_14TeV_NuGun_MINIAOD_gemsegm/250524_110223/0000/step3_NuGunE10_inMINIAODSIM_273.root\u000a
p876
aV/store/user/fnenna/NuGunE10_Phase2_PUstudies/140X_mcPhase2_14TeV_NuGun_MINIAOD_gemsegm/250524_110223/0000/step3_NuGunE10_inMINIAODSIM_619.root\u000a
p877
aV/store/user/fnenna/NuGunE10_Phase2_PUstudies/140X_mcPhase2_14TeV_NuGun_MINIAOD_gemsegm/250524_110223/0000/step3_NuGunE10_inMINIAODSIM_789.root\u000a
p878
aV/store/user/fnenna/NuGunE10_Phase2_PUstudies/140X_mcPhase2_14TeV_NuGun_MINIAOD_gemsegm/250524_110223/0000/step3_NuGunE10_inMINIAODSIM_928.root\u000a
p879
aV/store/user/fnenna/NuGunE10_Phase2_PUstudies/140X_mcPhase2_14TeV_NuGun_MINIAOD_gemsegm/250524_110223/0000/step3_NuGunE10_inMINIAODSIM_655.root\u000a
p880
aV/store/user/fnenna/NuGunE10_Phase2_PUstudies/140X_mcPhase2_14TeV_NuGun_MINIAOD_gemsegm/250524_110223/0000/step3_NuGunE10_inMINIAODSIM_761.root\u000a
p881
aV/store/user/fnenna/NuGunE10_Phase2_PUstudies/140X_mcPhase2_14TeV_NuGun_MINIAOD_gemsegm/250524_110223/0000/step3_NuGunE10_inMINIAODSIM_416.root\u000a
p882
aV/store/user/fnenna/NuGunE10_Phase2_PUstudies/140X_mcPhase2_14TeV_NuGun_MINIAOD_gemsegm/250524_110223/0000/step3_NuGunE10_inMINIAODSIM_848.root\u000a
p883
aV/store/user/fnenna/NuGunE10_Phase2_PUstudies/140X_mcPhase2_14TeV_NuGun_MINIAOD_gemsegm/250524_110223/0000/step3_NuGunE10_inMINIAODSIM_512.root\u000a
p884
aV/store/user/fnenna/NuGunE10_Phase2_PUstudies/140X_mcPhase2_14TeV_NuGun_MINIAOD_gemsegm/250524_110223/0000/step3_NuGunE10_inMINIAODSIM_852.root\u000a
p885
aV/store/user/fnenna/NuGunE10_Phase2_PUstudies/140X_mcPhase2_14TeV_NuGun_MINIAOD_gemsegm/250524_110223/0000/step3_NuGunE10_inMINIAODSIM_421.root\u000a
p886
aV/store/user/fnenna/NuGunE10_Phase2_PUstudies/140X_mcPhase2_14TeV_NuGun_MINIAOD_gemsegm/250524_110223/0000/step3_NuGunE10_inMINIAODSIM_256.root\u000a
p887
aV/store/user/fnenna/NuGunE10_Phase2_PUstudies/140X_mcPhase2_14TeV_NuGun_MINIAOD_gemsegm/250524_110223/0000/step3_NuGunE10_inMINIAODSIM_979.root\u000a
p888
aV/store/user/fnenna/NuGunE10_Phase2_PUstudies/140X_mcPhase2_14TeV_NuGun_MINIAOD_gemsegm/250524_110223/0000/step3_NuGunE10_inMINIAODSIM_555.root\u000a
p889
aV/store/user/fnenna/NuGunE10_Phase2_PUstudies/140X_mcPhase2_14TeV_NuGun_MINIAOD_gemsegm/250524_110223/0000/step3_NuGunE10_inMINIAODSIM_609.root\u000a
p890
aV/store/user/fnenna/NuGunE10_Phase2_PUstudies/140X_mcPhase2_14TeV_NuGun_MINIAOD_gemsegm/250524_110223/0000/step3_NuGunE10_inMINIAODSIM_399.root\u000a
p891
aV/store/user/fnenna/NuGunE10_Phase2_PUstudies/140X_mcPhase2_14TeV_NuGun_MINIAOD_gemsegm/250524_110223/0000/step3_NuGunE10_inMINIAODSIM_986.root\u000a
p892
aV/store/user/fnenna/NuGunE10_Phase2_PUstudies/140X_mcPhase2_14TeV_NuGun_MINIAOD_gemsegm/250524_110223/0000/step3_NuGunE10_inMINIAODSIM_308.root\u000a
p893
aV/store/user/fnenna/NuGunE10_Phase2_PUstudies/140X_mcPhase2_14TeV_NuGun_MINIAOD_gemsegm/250524_110223/0000/step3_NuGunE10_inMINIAODSIM_604.root\u000a
p894
aV/store/user/fnenna/NuGunE10_Phase2_PUstudies/140X_mcPhase2_14TeV_NuGun_MINIAOD_gemsegm/250524_110223/0000/step3_NuGunE10_inMINIAODSIM_212.root\u000a
p895
aV/store/user/fnenna/NuGunE10_Phase2_PUstudies/140X_mcPhase2_14TeV_NuGun_MINIAOD_gemsegm/250524_110223/0000/step3_NuGunE10_inMINIAODSIM_500.root\u000a
p896
aV/store/user/fnenna/NuGunE10_Phase2_PUstudies/140X_mcPhase2_14TeV_NuGun_MINIAOD_gemsegm/250524_110223/0000/step3_NuGunE10_inMINIAODSIM_357.root\u000a
p897
aV/store/user/fnenna/NuGunE10_Phase2_PUstudies/140X_mcPhase2_14TeV_NuGun_MINIAOD_gemsegm/250524_110223/0000/step3_NuGunE10_inMINIAODSIM_376.root\u000a
p898
aV/store/user/fnenna/NuGunE10_Phase2_PUstudies/140X_mcPhase2_14TeV_NuGun_MINIAOD_gemsegm/250524_110223/0000/step3_NuGunE10_inMINIAODSIM_778.root\u000a
p899
aV/store/user/fnenna/NuGunE10_Phase2_PUstudies/140X_mcPhase2_14TeV_NuGun_MINIAOD_gemsegm/250524_110223/0000/step3_NuGunE10_inMINIAODSIM_527.root\u000a
p900
aV/store/user/fnenna/NuGunE10_Phase2_PUstudies/140X_mcPhase2_14TeV_NuGun_MINIAOD_gemsegm/250524_110223/0000/step3_NuGunE10_inMINIAODSIM_646.root\u000a
p901
aV/store/user/fnenna/NuGunE10_Phase2_PUstudies/140X_mcPhase2_14TeV_NuGun_MINIAOD_gemsegm/250524_110223/0000/step3_NuGunE10_inMINIAODSIM_393.root\u000a
p902
aV/store/user/fnenna/NuGunE10_Phase2_PUstudies/140X_mcPhase2_14TeV_NuGun_MINIAOD_gemsegm/250524_110223/0000/step3_NuGunE10_inMINIAODSIM_522.root\u000a
p903
aV/store/user/fnenna/NuGunE10_Phase2_PUstudies/140X_mcPhase2_14TeV_NuGun_MINIAOD_gemsegm/250524_110223/0000/step3_NuGunE10_inMINIAODSIM_661.root\u000a
p904
aV/store/user/fnenna/NuGunE10_Phase2_PUstudies/140X_mcPhase2_14TeV_NuGun_MINIAOD_gemsegm/250524_110223/0000/step3_NuGunE10_inMINIAODSIM_317.root\u000a
p905
aV/store/user/fnenna/NuGunE10_Phase2_PUstudies/140X_mcPhase2_14TeV_NuGun_MINIAOD_gemsegm/250524_110223/0000/step3_NuGunE10_inMINIAODSIM_117.root\u000a
p906
aV/store/user/fnenna/NuGunE10_Phase2_PUstudies/140X_mcPhase2_14TeV_NuGun_MINIAOD_gemsegm/250524_110223/0000/step3_NuGunE10_inMINIAODSIM_737.root\u000a
p907
aV/store/user/fnenna/NuGunE10_Phase2_PUstudies/140X_mcPhase2_14TeV_NuGun_MINIAOD_gemsegm/250524_110223/0000/step3_NuGunE10_inMINIAODSIM_190.root\u000a
p908
aV/store/user/fnenna/NuGunE10_Phase2_PUstudies/140X_mcPhase2_14TeV_NuGun_MINIAOD_gemsegm/250524_110223/0000/step3_NuGunE10_inMINIAODSIM_502.root\u000a
p909
aV/store/user/fnenna/NuGunE10_Phase2_PUstudies/140X_mcPhase2_14TeV_NuGun_MINIAOD_gemsegm/250524_110223/0000/step3_NuGunE10_inMINIAODSIM_675.root\u000a
p910
aV/store/user/fnenna/NuGunE10_Phase2_PUstudies/140X_mcPhase2_14TeV_NuGun_MINIAOD_gemsegm/250524_110223/0000/step3_NuGunE10_inMINIAODSIM_597.root\u000a
p911
aV/store/user/fnenna/NuGunE10_Phase2_PUstudies/140X_mcPhase2_14TeV_NuGun_MINIAOD_gemsegm/250524_110223/0000/step3_NuGunE10_inMINIAODSIM_133.root\u000a
p912
aV/store/user/fnenna/NuGunE10_Phase2_PUstudies/140X_mcPhase2_14TeV_NuGun_MINIAOD_gemsegm/250524_110223/0000/step3_NuGunE10_inMINIAODSIM_976.root\u000a
p913
aV/store/user/fnenna/NuGunE10_Phase2_PUstudies/140X_mcPhase2_14TeV_NuGun_MINIAOD_gemsegm/250524_110223/0000/step3_NuGunE10_inMINIAODSIM_716.root\u000a
p914
aV/store/user/fnenna/NuGunE10_Phase2_PUstudies/140X_mcPhase2_14TeV_NuGun_MINIAOD_gemsegm/250524_110223/0000/step3_NuGunE10_inMINIAODSIM_327.root\u000a
p915
aV/store/user/fnenna/NuGunE10_Phase2_PUstudies/140X_mcPhase2_14TeV_NuGun_MINIAOD_gemsegm/250524_110223/0000/step3_NuGunE10_inMINIAODSIM_161.root\u000a
p916
aV/store/user/fnenna/NuGunE10_Phase2_PUstudies/140X_mcPhase2_14TeV_NuGun_MINIAOD_gemsegm/250524_110223/0000/step3_NuGunE10_inMINIAODSIM_548.root\u000a
p917
aV/store/user/fnenna/NuGunE10_Phase2_PUstudies/140X_mcPhase2_14TeV_NuGun_MINIAOD_gemsegm/250524_110223/0000/step3_NuGunE10_inMINIAODSIM_672.root\u000a
p918
aV/store/user/fnenna/NuGunE10_Phase2_PUstudies/140X_mcPhase2_14TeV_NuGun_MINIAOD_gemsegm/250524_110223/0000/step3_NuGunE10_inMINIAODSIM_895.root\u000a
p919
aV/store/user/fnenna/NuGunE10_Phase2_PUstudies/140X_mcPhase2_14TeV_NuGun_MINIAOD_gemsegm/250524_110223/0000/step3_NuGunE10_inMINIAODSIM_407.root\u000a
p920
aV/store/user/fnenna/NuGunE10_Phase2_PUstudies/140X_mcPhase2_14TeV_NuGun_MINIAOD_gemsegm/250524_110223/0000/step3_NuGunE10_inMINIAODSIM_264.root\u000a
p921
aV/store/user/fnenna/NuGunE10_Phase2_PUstudies/140X_mcPhase2_14TeV_NuGun_MINIAOD_gemsegm/250524_110223/0000/step3_NuGunE10_inMINIAODSIM_656.root\u000a
p922
aV/store/user/fnenna/NuGunE10_Phase2_PUstudies/140X_mcPhase2_14TeV_NuGun_MINIAOD_gemsegm/250524_110223/0000/step3_NuGunE10_inMINIAODSIM_888.root\u000a
p923
aV/store/user/fnenna/NuGunE10_Phase2_PUstudies/140X_mcPhase2_14TeV_NuGun_MINIAOD_gemsegm/250524_110223/0000/step3_NuGunE10_inMINIAODSIM_945.root\u000a
p924
aV/store/user/fnenna/NuGunE10_Phase2_PUstudies/140X_mcPhase2_14TeV_NuGun_MINIAOD_gemsegm/250524_110223/0000/step3_NuGunE10_inMINIAODSIM_745.root\u000a
p925
aV/store/user/fnenna/NuGunE10_Phase2_PUstudies/140X_mcPhase2_14TeV_NuGun_MINIAOD_gemsegm/250524_110223/0000/step3_NuGunE10_inMINIAODSIM_126.root\u000a
p926
aV/store/user/fnenna/NuGunE10_Phase2_PUstudies/140X_mcPhase2_14TeV_NuGun_MINIAOD_gemsegm/250524_110223/0000/step3_NuGunE10_inMINIAODSIM_99.root\u000a
p927
aV/store/user/fnenna/NuGunE10_Phase2_PUstudies/140X_mcPhase2_14TeV_NuGun_MINIAOD_gemsegm/250524_110223/0000/step3_NuGunE10_inMINIAODSIM_259.root\u000a
p928
aV/store/user/fnenna/NuGunE10_Phase2_PUstudies/140X_mcPhase2_14TeV_NuGun_MINIAOD_gemsegm/250524_110223/0000/step3_NuGunE10_inMINIAODSIM_523.root\u000a
p929
aV/store/user/fnenna/NuGunE10_Phase2_PUstudies/140X_mcPhase2_14TeV_NuGun_MINIAOD_gemsegm/250524_110223/0000/step3_NuGunE10_inMINIAODSIM_318.root\u000a
p930
aV/store/user/fnenna/NuGunE10_Phase2_PUstudies/140X_mcPhase2_14TeV_NuGun_MINIAOD_gemsegm/250524_110223/0000/step3_NuGunE10_inMINIAODSIM_89.root\u000a
p931
aV/store/user/fnenna/NuGunE10_Phase2_PUstudies/140X_mcPhase2_14TeV_NuGun_MINIAOD_gemsegm/250524_110223/0000/step3_NuGunE10_inMINIAODSIM_890.root\u000a
p932
aV/store/user/fnenna/NuGunE10_Phase2_PUstudies/140X_mcPhase2_14TeV_NuGun_MINIAOD_gemsegm/250524_110223/0000/step3_NuGunE10_inMINIAODSIM_15.root\u000a
p933
aV/store/user/fnenna/NuGunE10_Phase2_PUstudies/140X_mcPhase2_14TeV_NuGun_MINIAOD_gemsegm/250524_110223/0000/step3_NuGunE10_inMINIAODSIM_198.root\u000a
p934
aV/store/user/fnenna/NuGunE10_Phase2_PUstudies/140X_mcPhase2_14TeV_NuGun_MINIAOD_gemsegm/250524_110223/0000/step3_NuGunE10_inMINIAODSIM_906.root\u000a
p935
aV/store/user/fnenna/NuGunE10_Phase2_PUstudies/140X_mcPhase2_14TeV_NuGun_MINIAOD_gemsegm/250524_110223/0000/step3_NuGunE10_inMINIAODSIM_433.root\u000a
p936
aV/store/user/fnenna/NuGunE10_Phase2_PUstudies/140X_mcPhase2_14TeV_NuGun_MINIAOD_gemsegm/250524_110223/0000/step3_NuGunE10_inMINIAODSIM_111.root\u000a
p937
aV/store/user/fnenna/NuGunE10_Phase2_PUstudies/140X_mcPhase2_14TeV_NuGun_MINIAOD_gemsegm/250524_110223/0000/step3_NuGunE10_inMINIAODSIM_410.root\u000a
p938
aV/store/user/fnenna/NuGunE10_Phase2_PUstudies/140X_mcPhase2_14TeV_NuGun_MINIAOD_gemsegm/250524_110223/0000/step3_NuGunE10_inMINIAODSIM_915.root\u000a
p939
aV/store/user/fnenna/NuGunE10_Phase2_PUstudies/140X_mcPhase2_14TeV_NuGun_MINIAOD_gemsegm/250524_110223/0000/step3_NuGunE10_inMINIAODSIM_543.root\u000a
p940
aV/store/user/fnenna/NuGunE10_Phase2_PUstudies/140X_mcPhase2_14TeV_NuGun_MINIAOD_gemsegm/250524_110223/0000/step3_NuGunE10_inMINIAODSIM_703.root\u000a
p941
aV/store/user/fnenna/NuGunE10_Phase2_PUstudies/140X_mcPhase2_14TeV_NuGun_MINIAOD_gemsegm/250524_110223/0000/step3_NuGunE10_inMINIAODSIM_569.root\u000a
p942
aV/store/user/fnenna/NuGunE10_Phase2_PUstudies/140X_mcPhase2_14TeV_NuGun_MINIAOD_gemsegm/250524_110223/0000/step3_NuGunE10_inMINIAODSIM_279.root\u000a
p943
aV/store/user/fnenna/NuGunE10_Phase2_PUstudies/140X_mcPhase2_14TeV_NuGun_MINIAOD_gemsegm/250524_110223/0000/step3_NuGunE10_inMINIAODSIM_392.root\u000a
p944
aV/store/user/fnenna/NuGunE10_Phase2_PUstudies/140X_mcPhase2_14TeV_NuGun_MINIAOD_gemsegm/250524_110223/0000/step3_NuGunE10_inMINIAODSIM_755.root\u000a
p945
aV/store/user/fnenna/NuGunE10_Phase2_PUstudies/140X_mcPhase2_14TeV_NuGun_MINIAOD_gemsegm/250524_110223/0000/step3_NuGunE10_inMINIAODSIM_940.root\u000a
p946
aV/store/user/fnenna/NuGunE10_Phase2_PUstudies/140X_mcPhase2_14TeV_NuGun_MINIAOD_gemsegm/250524_110223/0000/step3_NuGunE10_inMINIAODSIM_11.root\u000a
p947
aV/store/user/fnenna/NuGunE10_Phase2_PUstudies/140X_mcPhase2_14TeV_NuGun_MINIAOD_gemsegm/250524_110223/0000/step3_NuGunE10_inMINIAODSIM_206.root\u000a
p948
aV/store/user/fnenna/NuGunE10_Phase2_PUstudies/140X_mcPhase2_14TeV_NuGun_MINIAOD_gemsegm/250524_110223/0000/step3_NuGunE10_inMINIAODSIM_312.root\u000a
p949
aV/store/user/fnenna/NuGunE10_Phase2_PUstudies/140X_mcPhase2_14TeV_NuGun_MINIAOD_gemsegm/250524_110223/0000/step3_NuGunE10_inMINIAODSIM_828.root\u000a
p950
aV/store/user/fnenna/NuGunE10_Phase2_PUstudies/140X_mcPhase2_14TeV_NuGun_MINIAOD_gemsegm/250524_110223/0000/step3_NuGunE10_inMINIAODSIM_417.root\u000a
p951
aV/store/user/fnenna/NuGunE10_Phase2_PUstudies/140X_mcPhase2_14TeV_NuGun_MINIAOD_gemsegm/250524_110223/0000/step3_NuGunE10_inMINIAODSIM_936.root\u000a
p952
aV/store/user/fnenna/NuGunE10_Phase2_PUstudies/140X_mcPhase2_14TeV_NuGun_MINIAOD_gemsegm/250524_110223/0000/step3_NuGunE10_inMINIAODSIM_701.root\u000a
p953
aV/store/user/fnenna/NuGunE10_Phase2_PUstudies/140X_mcPhase2_14TeV_NuGun_MINIAOD_gemsegm/250524_110223/0000/step3_NuGunE10_inMINIAODSIM_383.root\u000a
p954
aV/store/user/fnenna/NuGunE10_Phase2_PUstudies/140X_mcPhase2_14TeV_NuGun_MINIAOD_gemsegm/250524_110223/0000/step3_NuGunE10_inMINIAODSIM_364.root\u000a
p955
aV/store/user/fnenna/NuGunE10_Phase2_PUstudies/140X_mcPhase2_14TeV_NuGun_MINIAOD_gemsegm/250524_110223/0000/step3_NuGunE10_inMINIAODSIM_621.root\u000a
p956
aV/store/user/fnenna/NuGunE10_Phase2_PUstudies/140X_mcPhase2_14TeV_NuGun_MINIAOD_gemsegm/250524_110223/0000/step3_NuGunE10_inMINIAODSIM_557.root\u000a
p957
aV/store/user/fnenna/NuGunE10_Phase2_PUstudies/140X_mcPhase2_14TeV_NuGun_MINIAOD_gemsegm/250524_110223/0000/step3_NuGunE10_inMINIAODSIM_230.root\u000a
p958
aV/store/user/fnenna/NuGunE10_Phase2_PUstudies/140X_mcPhase2_14TeV_NuGun_MINIAOD_gemsegm/250524_110223/0000/step3_NuGunE10_inMINIAODSIM_805.root\u000a
p959
aV/store/user/fnenna/NuGunE10_Phase2_PUstudies/140X_mcPhase2_14TeV_NuGun_MINIAOD_gemsegm/250524_110223/0000/step3_NuGunE10_inMINIAODSIM_859.root\u000a
p960
aV/store/user/fnenna/NuGunE10_Phase2_PUstudies/140X_mcPhase2_14TeV_NuGun_MINIAOD_gemsegm/250524_110223/0000/step3_NuGunE10_inMINIAODSIM_978.root\u000a
p961
aV/store/user/fnenna/NuGunE10_Phase2_PUstudies/140X_mcPhase2_14TeV_NuGun_MINIAOD_gemsegm/250524_110223/0000/step3_NuGunE10_inMINIAODSIM_429.root\u000a
p962
aV/store/user/fnenna/NuGunE10_Phase2_PUstudies/140X_mcPhase2_14TeV_NuGun_MINIAOD_gemsegm/250524_110223/0000/step3_NuGunE10_inMINIAODSIM_165.root\u000a
p963
aV/store/user/fnenna/NuGunE10_Phase2_PUstudies/140X_mcPhase2_14TeV_NuGun_MINIAOD_gemsegm/250524_110223/0000/step3_NuGunE10_inMINIAODSIM_106.root\u000a
p964
aV/store/user/fnenna/NuGunE10_Phase2_PUstudies/140X_mcPhase2_14TeV_NuGun_MINIAOD_gemsegm/250524_110223/0000/step3_NuGunE10_inMINIAODSIM_510.root\u000a
p965
aV/store/user/fnenna/NuGunE10_Phase2_PUstudies/140X_mcPhase2_14TeV_NuGun_MINIAOD_gemsegm/250524_110223/0000/step3_NuGunE10_inMINIAODSIM_329.root\u000a
p966
aV/store/user/fnenna/NuGunE10_Phase2_PUstudies/140X_mcPhase2_14TeV_NuGun_MINIAOD_gemsegm/250524_110223/0000/step3_NuGunE10_inMINIAODSIM_191.root\u000a
p967
aV/store/user/fnenna/NuGunE10_Phase2_PUstudies/140X_mcPhase2_14TeV_NuGun_MINIAOD_gemsegm/250524_110223/0000/step3_NuGunE10_inMINIAODSIM_957.root\u000a
p968
aV/store/user/fnenna/NuGunE10_Phase2_PUstudies/140X_mcPhase2_14TeV_NuGun_MINIAOD_gemsegm/250524_110223/0000/step3_NuGunE10_inMINIAODSIM_76.root\u000a
p969
aV/store/user/fnenna/NuGunE10_Phase2_PUstudies/140X_mcPhase2_14TeV_NuGun_MINIAOD_gemsegm/250524_110223/0000/step3_NuGunE10_inMINIAODSIM_526.root\u000a
p970
aV/store/user/fnenna/NuGunE10_Phase2_PUstudies/140X_mcPhase2_14TeV_NuGun_MINIAOD_gemsegm/250524_110223/0000/step3_NuGunE10_inMINIAODSIM_740.root\u000a
p971
aV/store/user/fnenna/NuGunE10_Phase2_PUstudies/140X_mcPhase2_14TeV_NuGun_MINIAOD_gemsegm/250524_110223/0000/step3_NuGunE10_inMINIAODSIM_535.root\u000a
p972
aV/store/user/fnenna/NuGunE10_Phase2_PUstudies/140X_mcPhase2_14TeV_NuGun_MINIAOD_gemsegm/250524_110223/0000/step3_NuGunE10_inMINIAODSIM_671.root\u000a
p973
aV/store/user/fnenna/NuGunE10_Phase2_PUstudies/140X_mcPhase2_14TeV_NuGun_MINIAOD_gemsegm/250524_110223/0000/step3_NuGunE10_inMINIAODSIM_458.root\u000a
p974
aV/store/user/fnenna/NuGunE10_Phase2_PUstudies/140X_mcPhase2_14TeV_NuGun_MINIAOD_gemsegm/250524_110223/0000/step3_NuGunE10_inMINIAODSIM_1.root\u000a
p975
aV/store/user/fnenna/NuGunE10_Phase2_PUstudies/140X_mcPhase2_14TeV_NuGun_MINIAOD_gemsegm/250524_110223/0000/step3_NuGunE10_inMINIAODSIM_582.root\u000a
p976
aV/store/user/fnenna/NuGunE10_Phase2_PUstudies/140X_mcPhase2_14TeV_NuGun_MINIAOD_gemsegm/250524_110223/0000/step3_NuGunE10_inMINIAODSIM_390.root\u000a
p977
aV/store/user/fnenna/NuGunE10_Phase2_PUstudies/140X_mcPhase2_14TeV_NuGun_MINIAOD_gemsegm/250524_110223/0000/step3_NuGunE10_inMINIAODSIM_948.root\u000a
p978
aV/store/user/fnenna/NuGunE10_Phase2_PUstudies/140X_mcPhase2_14TeV_NuGun_MINIAOD_gemsegm/250524_110223/0000/step3_NuGunE10_inMINIAODSIM_995.root\u000a
p979
aV/store/user/fnenna/NuGunE10_Phase2_PUstudies/140X_mcPhase2_14TeV_NuGun_MINIAOD_gemsegm/250524_110223/0000/step3_NuGunE10_inMINIAODSIM_524.root\u000a
p980
aV/store/user/fnenna/NuGunE10_Phase2_PUstudies/140X_mcPhase2_14TeV_NuGun_MINIAOD_gemsegm/250524_110223/0000/step3_NuGunE10_inMINIAODSIM_171.root\u000a
p981
aV/store/user/fnenna/NuGunE10_Phase2_PUstudies/140X_mcPhase2_14TeV_NuGun_MINIAOD_gemsegm/250524_110223/0000/step3_NuGunE10_inMINIAODSIM_833.root\u000a
p982
aV/store/user/fnenna/NuGunE10_Phase2_PUstudies/140X_mcPhase2_14TeV_NuGun_MINIAOD_gemsegm/250524_110223/0000/step3_NuGunE10_inMINIAODSIM_303.root\u000a
p983
aV/store/user/fnenna/NuGunE10_Phase2_PUstudies/140X_mcPhase2_14TeV_NuGun_MINIAOD_gemsegm/250524_110223/0000/step3_NuGunE10_inMINIAODSIM_577.root\u000a
p984
aV/store/user/fnenna/NuGunE10_Phase2_PUstudies/140X_mcPhase2_14TeV_NuGun_MINIAOD_gemsegm/250524_110223/0000/step3_NuGunE10_inMINIAODSIM_788.root\u000a
p985
aV/store/user/fnenna/NuGunE10_Phase2_PUstudies/140X_mcPhase2_14TeV_NuGun_MINIAOD_gemsegm/250524_110223/0000/step3_NuGunE10_inMINIAODSIM_373.root\u000a
p986
aV/store/user/fnenna/NuGunE10_Phase2_PUstudies/140X_mcPhase2_14TeV_NuGun_MINIAOD_gemsegm/250524_110223/0000/step3_NuGunE10_inMINIAODSIM_443.root\u000a
p987
aV/store/user/fnenna/NuGunE10_Phase2_PUstudies/140X_mcPhase2_14TeV_NuGun_MINIAOD_gemsegm/250524_110223/0000/step3_NuGunE10_inMINIAODSIM_142.root\u000a
p988
aV/store/user/fnenna/NuGunE10_Phase2_PUstudies/140X_mcPhase2_14TeV_NuGun_MINIAOD_gemsegm/250524_110223/0000/step3_NuGunE10_inMINIAODSIM_186.root\u000a
p989
aV/store/user/fnenna/NuGunE10_Phase2_PUstudies/140X_mcPhase2_14TeV_NuGun_MINIAOD_gemsegm/250524_110223/0000/step3_NuGunE10_inMINIAODSIM_497.root\u000a
p990
aV/store/user/fnenna/NuGunE10_Phase2_PUstudies/140X_mcPhase2_14TeV_NuGun_MINIAOD_gemsegm/250524_110223/0000/step3_NuGunE10_inMINIAODSIM_285.root\u000a
p991
aV/store/user/fnenna/NuGunE10_Phase2_PUstudies/140X_mcPhase2_14TeV_NuGun_MINIAOD_gemsegm/250524_110223/0000/step3_NuGunE10_inMINIAODSIM_315.root\u000a
p992
aV/store/user/fnenna/NuGunE10_Phase2_PUstudies/140X_mcPhase2_14TeV_NuGun_MINIAOD_gemsegm/250524_110223/0000/step3_NuGunE10_inMINIAODSIM_335.root\u000a
p993
aV/store/user/fnenna/NuGunE10_Phase2_PUstudies/140X_mcPhase2_14TeV_NuGun_MINIAOD_gemsegm/250524_110223/0000/step3_NuGunE10_inMINIAODSIM_137.root\u000a
p994
aV/store/user/fnenna/NuGunE10_Phase2_PUstudies/140X_mcPhase2_14TeV_NuGun_MINIAOD_gemsegm/250524_110223/0000/step3_NuGunE10_inMINIAODSIM_602.root\u000a
p995
aV/store/user/fnenna/NuGunE10_Phase2_PUstudies/140X_mcPhase2_14TeV_NuGun_MINIAOD_gemsegm/250524_110223/0000/step3_NuGunE10_inMINIAODSIM_608.root\u000a
p996
aV/store/user/fnenna/NuGunE10_Phase2_PUstudies/140X_mcPhase2_14TeV_NuGun_MINIAOD_gemsegm/250524_110223/0000/step3_NuGunE10_inMINIAODSIM_406.root\u000a
p997
aV/store/user/fnenna/NuGunE10_Phase2_PUstudies/140X_mcPhase2_14TeV_NuGun_MINIAOD_gemsegm/250524_110223/0000/step3_NuGunE10_inMINIAODSIM_686.root\u000a
p998
aV/store/user/fnenna/NuGunE10_Phase2_PUstudies/140X_mcPhase2_14TeV_NuGun_MINIAOD_gemsegm/250524_110223/0000/step3_NuGunE10_inMINIAODSIM_931.root\u000a
p999
aV/store/user/fnenna/NuGunE10_Phase2_PUstudies/140X_mcPhase2_14TeV_NuGun_MINIAOD_gemsegm/250524_110223/0000/step3_NuGunE10_inMINIAODSIM_339.root\u000a
p1000
aV/store/user/fnenna/NuGunE10_Phase2_PUstudies/140X_mcPhase2_14TeV_NuGun_MINIAOD_gemsegm/250524_110223/0000/step3_NuGunE10_inMINIAODSIM_272.root\u000a
p1001
aV/store/user/fnenna/NuGunE10_Phase2_PUstudies/140X_mcPhase2_14TeV_NuGun_MINIAOD_gemsegm/250524_110223/0000/step3_NuGunE10_inMINIAODSIM_873.root\u000a
p1002
aV/store/user/fnenna/NuGunE10_Phase2_PUstudies/140X_mcPhase2_14TeV_NuGun_MINIAOD_gemsegm/250524_110223/0000/step3_NuGunE10_inMINIAODSIM_24.root\u000a
p1003
aV/store/user/fnenna/NuGunE10_Phase2_PUstudies/140X_mcPhase2_14TeV_NuGun_MINIAOD_gemsegm/250524_110223/0000/step3_NuGunE10_inMINIAODSIM_227.root\u000a
p1004
aV/store/user/fnenna/NuGunE10_Phase2_PUstudies/140X_mcPhase2_14TeV_NuGun_MINIAOD_gemsegm/250524_110223/0000/step3_NuGunE10_inMINIAODSIM_858.root\u000a
p1005
aV/store/user/fnenna/NuGunE10_Phase2_PUstudies/140X_mcPhase2_14TeV_NuGun_MINIAOD_gemsegm/250524_110223/0000/step3_NuGunE10_inMINIAODSIM_573.root\u000a
p1006
aV/store/user/fnenna/NuGunE10_Phase2_PUstudies/140X_mcPhase2_14TeV_NuGun_MINIAOD_gemsegm/250524_110223/0000/step3_NuGunE10_inMINIAODSIM_387.root\u000a
p1007
aV/store/user/fnenna/NuGunE10_Phase2_PUstudies/140X_mcPhase2_14TeV_NuGun_MINIAOD_gemsegm/250524_110223/0000/step3_NuGunE10_inMINIAODSIM_611.root\u000a
p1008
aV/store/user/fnenna/NuGunE10_Phase2_PUstudies/140X_mcPhase2_14TeV_NuGun_MINIAOD_gemsegm/250524_110223/0000/step3_NuGunE10_inMINIAODSIM_800.root\u000a
p1009
aV/store/user/fnenna/NuGunE10_Phase2_PUstudies/140X_mcPhase2_14TeV_NuGun_MINIAOD_gemsegm/250524_110223/0000/step3_NuGunE10_inMINIAODSIM_562.root\u000a
p1010
aV/store/user/fnenna/NuGunE10_Phase2_PUstudies/140X_mcPhase2_14TeV_NuGun_MINIAOD_gemsegm/250524_110223/0000/step3_NuGunE10_inMINIAODSIM_773.root\u000a
p1011
aV/store/user/fnenna/NuGunE10_Phase2_PUstudies/140X_mcPhase2_14TeV_NuGun_MINIAOD_gemsegm/250524_110223/0000/step3_NuGunE10_inMINIAODSIM_88.root\u000a
p1012
aV/store/user/fnenna/NuGunE10_Phase2_PUstudies/140X_mcPhase2_14TeV_NuGun_MINIAOD_gemsegm/250524_110223/0000/step3_NuGunE10_inMINIAODSIM_232.root\u000a
p1013
aV/store/user/fnenna/NuGunE10_Phase2_PUstudies/140X_mcPhase2_14TeV_NuGun_MINIAOD_gemsegm/250524_110223/0000/step3_NuGunE10_inMINIAODSIM_351.root\u000a
p1014
aV/store/user/fnenna/NuGunE10_Phase2_PUstudies/140X_mcPhase2_14TeV_NuGun_MINIAOD_gemsegm/250524_110223/0000/step3_NuGunE10_inMINIAODSIM_496.root\u000a
p1015
aV/store/user/fnenna/NuGunE10_Phase2_PUstudies/140X_mcPhase2_14TeV_NuGun_MINIAOD_gemsegm/250524_110223/0000/step3_NuGunE10_inMINIAODSIM_345.root\u000a
p1016
aV/store/user/fnenna/NuGunE10_Phase2_PUstudies/140X_mcPhase2_14TeV_NuGun_MINIAOD_gemsegm/250524_110223/0000/step3_NuGunE10_inMINIAODSIM_69.root\u000a
p1017
aV/store/user/fnenna/NuGunE10_Phase2_PUstudies/140X_mcPhase2_14TeV_NuGun_MINIAOD_gemsegm/250524_110223/0000/step3_NuGunE10_inMINIAODSIM_560.root\u000a
p1018
aV/store/user/fnenna/NuGunE10_Phase2_PUstudies/140X_mcPhase2_14TeV_NuGun_MINIAOD_gemsegm/250524_110223/0000/step3_NuGunE10_inMINIAODSIM_629.root\u000a
p1019
aV/store/user/fnenna/NuGunE10_Phase2_PUstudies/140X_mcPhase2_14TeV_NuGun_MINIAOD_gemsegm/250524_110223/0000/step3_NuGunE10_inMINIAODSIM_460.root\u000a
p1020
aV/store/user/fnenna/NuGunE10_Phase2_PUstudies/140X_mcPhase2_14TeV_NuGun_MINIAOD_gemsegm/250524_110223/0000/step3_NuGunE10_inMINIAODSIM_465.root\u000a
p1021
aV/store/user/fnenna/NuGunE10_Phase2_PUstudies/140X_mcPhase2_14TeV_NuGun_MINIAOD_gemsegm/250524_110223/0000/step3_NuGunE10_inMINIAODSIM_728.root\u000a
p1022
aV/store/user/fnenna/NuGunE10_Phase2_PUstudies/140X_mcPhase2_14TeV_NuGun_MINIAOD_gemsegm/250524_110223/0000/step3_NuGunE10_inMINIAODSIM_244.root\u000a
p1023
aV/store/user/fnenna/NuGunE10_Phase2_PUstudies/140X_mcPhase2_14TeV_NuGun_MINIAOD_gemsegm/250524_110223/0000/step3_NuGunE10_inMINIAODSIM_304.root\u000a
p1024
aV/store/user/fnenna/NuGunE10_Phase2_PUstudies/140X_mcPhase2_14TeV_NuGun_MINIAOD_gemsegm/250524_110223/0000/step3_NuGunE10_inMINIAODSIM_306.root\u000a
p1025
aV/store/user/fnenna/NuGunE10_Phase2_PUstudies/140X_mcPhase2_14TeV_NuGun_MINIAOD_gemsegm/250524_110223/0000/step3_NuGunE10_inMINIAODSIM_96.root\u000a
p1026
aV/store/user/fnenna/NuGunE10_Phase2_PUstudies/140X_mcPhase2_14TeV_NuGun_MINIAOD_gemsegm/250524_110223/0000/step3_NuGunE10_inMINIAODSIM_886.root\u000a
p1027
aV/store/user/fnenna/NuGunE10_Phase2_PUstudies/140X_mcPhase2_14TeV_NuGun_MINIAOD_gemsegm/250524_110223/0000/step3_NuGunE10_inMINIAODSIM_787.root\u000a
p1028
aV/store/user/fnenna/NuGunE10_Phase2_PUstudies/140X_mcPhase2_14TeV_NuGun_MINIAOD_gemsegm/250524_110223/0000/step3_NuGunE10_inMINIAODSIM_644.root\u000a
p1029
aV/store/user/fnenna/NuGunE10_Phase2_PUstudies/140X_mcPhase2_14TeV_NuGun_MINIAOD_gemsegm/250524_110223/0000/step3_NuGunE10_inMINIAODSIM_210.root\u000a
p1030
aV/store/user/fnenna/NuGunE10_Phase2_PUstudies/140X_mcPhase2_14TeV_NuGun_MINIAOD_gemsegm/250524_110223/0000/step3_NuGunE10_inMINIAODSIM_693.root\u000a
p1031
aV/store/user/fnenna/NuGunE10_Phase2_PUstudies/140X_mcPhase2_14TeV_NuGun_MINIAOD_gemsegm/250524_110223/0000/step3_NuGunE10_inMINIAODSIM_699.root\u000a
p1032
aV/store/user/fnenna/NuGunE10_Phase2_PUstudies/140X_mcPhase2_14TeV_NuGun_MINIAOD_gemsegm/250524_110223/0000/step3_NuGunE10_inMINIAODSIM_612.root\u000a
p1033
aV/store/user/fnenna/NuGunE10_Phase2_PUstudies/140X_mcPhase2_14TeV_NuGun_MINIAOD_gemsegm/250524_110223/0000/step3_NuGunE10_inMINIAODSIM_439.root\u000a
p1034
aV/store/user/fnenna/NuGunE10_Phase2_PUstudies/140X_mcPhase2_14TeV_NuGun_MINIAOD_gemsegm/250524_110223/0000/step3_NuGunE10_inMINIAODSIM_956.root\u000a
p1035
aV/store/user/fnenna/NuGunE10_Phase2_PUstudies/140X_mcPhase2_14TeV_NuGun_MINIAOD_gemsegm/250524_110223/0000/step3_NuGunE10_inMINIAODSIM_657.root\u000a
p1036
aV/store/user/fnenna/NuGunE10_Phase2_PUstudies/140X_mcPhase2_14TeV_NuGun_MINIAOD_gemsegm/250524_110223/0000/step3_NuGunE10_inMINIAODSIM_673.root\u000a
p1037
aV/store/user/fnenna/NuGunE10_Phase2_PUstudies/140X_mcPhase2_14TeV_NuGun_MINIAOD_gemsegm/250524_110223/0000/step3_NuGunE10_inMINIAODSIM_427.root\u000a
p1038
aV/store/user/fnenna/NuGunE10_Phase2_PUstudies/140X_mcPhase2_14TeV_NuGun_MINIAOD_gemsegm/250524_110223/0000/step3_NuGunE10_inMINIAODSIM_79.root\u000a
p1039
aV/store/user/fnenna/NuGunE10_Phase2_PUstudies/140X_mcPhase2_14TeV_NuGun_MINIAOD_gemsegm/250524_110223/0000/step3_NuGunE10_inMINIAODSIM_179.root\u000a
p1040
aV/store/user/fnenna/NuGunE10_Phase2_PUstudies/140X_mcPhase2_14TeV_NuGun_MINIAOD_gemsegm/250524_110223/0000/step3_NuGunE10_inMINIAODSIM_676.root\u000a
p1041
aV/store/user/fnenna/NuGunE10_Phase2_PUstudies/140X_mcPhase2_14TeV_NuGun_MINIAOD_gemsegm/250524_110223/0000/step3_NuGunE10_inMINIAODSIM_717.root\u000a
p1042
aV/store/user/fnenna/NuGunE10_Phase2_PUstudies/140X_mcPhase2_14TeV_NuGun_MINIAOD_gemsegm/250524_110223/0000/step3_NuGunE10_inMINIAODSIM_194.root\u000a
p1043
aV/store/user/fnenna/NuGunE10_Phase2_PUstudies/140X_mcPhase2_14TeV_NuGun_MINIAOD_gemsegm/250524_110223/0000/step3_NuGunE10_inMINIAODSIM_660.root\u000a
p1044
aV/store/user/fnenna/NuGunE10_Phase2_PUstudies/140X_mcPhase2_14TeV_NuGun_MINIAOD_gemsegm/250524_110223/0000/step3_NuGunE10_inMINIAODSIM_516.root\u000a
p1045
aV/store/user/fnenna/NuGunE10_Phase2_PUstudies/140X_mcPhase2_14TeV_NuGun_MINIAOD_gemsegm/250524_110223/0000/step3_NuGunE10_inMINIAODSIM_720.root\u000a
p1046
aV/store/user/fnenna/NuGunE10_Phase2_PUstudies/140X_mcPhase2_14TeV_NuGun_MINIAOD_gemsegm/250524_110223/0000/step3_NuGunE10_inMINIAODSIM_981.root\u000a
p1047
aV/store/user/fnenna/NuGunE10_Phase2_PUstudies/140X_mcPhase2_14TeV_NuGun_MINIAOD_gemsegm/250524_110223/0000/step3_NuGunE10_inMINIAODSIM_595.root\u000a
p1048
aV/store/user/fnenna/NuGunE10_Phase2_PUstudies/140X_mcPhase2_14TeV_NuGun_MINIAOD_gemsegm/250524_110223/0000/step3_NuGunE10_inMINIAODSIM_402.root\u000a
p1049
aV/store/user/fnenna/NuGunE10_Phase2_PUstudies/140X_mcPhase2_14TeV_NuGun_MINIAOD_gemsegm/250524_110223/0000/step3_NuGunE10_inMINIAODSIM_862.root\u000a
p1050
aV/store/user/fnenna/NuGunE10_Phase2_PUstudies/140X_mcPhase2_14TeV_NuGun_MINIAOD_gemsegm/250524_110223/0000/step3_NuGunE10_inMINIAODSIM_892.root\u000a
p1051
aV/store/user/fnenna/NuGunE10_Phase2_PUstudies/140X_mcPhase2_14TeV_NuGun_MINIAOD_gemsegm/250524_110223/0000/step3_NuGunE10_inMINIAODSIM_302.root\u000a
p1052
aV/store/user/fnenna/NuGunE10_Phase2_PUstudies/140X_mcPhase2_14TeV_NuGun_MINIAOD_gemsegm/250524_110223/0000/step3_NuGunE10_inMINIAODSIM_985.root\u000a
p1053
aV/store/user/fnenna/NuGunE10_Phase2_PUstudies/140X_mcPhase2_14TeV_NuGun_MINIAOD_gemsegm/250524_110223/0000/step3_NuGunE10_inMINIAODSIM_370.root\u000a
p1054
aV/store/user/fnenna/NuGunE10_Phase2_PUstudies/140X_mcPhase2_14TeV_NuGun_MINIAOD_gemsegm/250524_110223/0000/step3_NuGunE10_inMINIAODSIM_177.root\u000a
p1055
aV/store/user/fnenna/NuGunE10_Phase2_PUstudies/140X_mcPhase2_14TeV_NuGun_MINIAOD_gemsegm/250524_110223/0000/step3_NuGunE10_inMINIAODSIM_589.root\u000a
p1056
aV/store/user/fnenna/NuGunE10_Phase2_PUstudies/140X_mcPhase2_14TeV_NuGun_MINIAOD_gemsegm/250524_110223/0000/step3_NuGunE10_inMINIAODSIM_398.root\u000a
p1057
aV/store/user/fnenna/NuGunE10_Phase2_PUstudies/140X_mcPhase2_14TeV_NuGun_MINIAOD_gemsegm/250524_110223/0000/step3_NuGunE10_inMINIAODSIM_237.root\u000a
p1058
aV/store/user/fnenna/NuGunE10_Phase2_PUstudies/140X_mcPhase2_14TeV_NuGun_MINIAOD_gemsegm/250524_110223/0000/step3_NuGunE10_inMINIAODSIM_33.root\u000a
p1059
aV/store/user/fnenna/NuGunE10_Phase2_PUstudies/140X_mcPhase2_14TeV_NuGun_MINIAOD_gemsegm/250524_110223/0000/step3_NuGunE10_inMINIAODSIM_970.root\u000a
p1060
aV/store/user/fnenna/NuGunE10_Phase2_PUstudies/140X_mcPhase2_14TeV_NuGun_MINIAOD_gemsegm/250524_110223/0000/step3_NuGunE10_inMINIAODSIM_487.root\u000a
p1061
aV/store/user/fnenna/NuGunE10_Phase2_PUstudies/140X_mcPhase2_14TeV_NuGun_MINIAOD_gemsegm/250524_110223/0000/step3_NuGunE10_inMINIAODSIM_765.root\u000a
p1062
aV/store/user/fnenna/NuGunE10_Phase2_PUstudies/140X_mcPhase2_14TeV_NuGun_MINIAOD_gemsegm/250524_110223/0000/step3_NuGunE10_inMINIAODSIM_796.root\u000a
p1063
aV/store/user/fnenna/NuGunE10_Phase2_PUstudies/140X_mcPhase2_14TeV_NuGun_MINIAOD_gemsegm/250524_110223/0000/step3_NuGunE10_inMINIAODSIM_618.root\u000a
p1064
aV/store/user/fnenna/NuGunE10_Phase2_PUstudies/140X_mcPhase2_14TeV_NuGun_MINIAOD_gemsegm/250524_110223/0000/step3_NuGunE10_inMINIAODSIM_2.root\u000a
p1065
aV/store/user/fnenna/NuGunE10_Phase2_PUstudies/140X_mcPhase2_14TeV_NuGun_MINIAOD_gemsegm/250524_110223/0000/step3_NuGunE10_inMINIAODSIM_844.root\u000a
p1066
aV/store/user/fnenna/NuGunE10_Phase2_PUstudies/140X_mcPhase2_14TeV_NuGun_MINIAOD_gemsegm/250524_110223/0000/step3_NuGunE10_inMINIAODSIM_442.root\u000a
p1067
aV/store/user/fnenna/NuGunE10_Phase2_PUstudies/140X_mcPhase2_14TeV_NuGun_MINIAOD_gemsegm/250524_110223/0000/step3_NuGunE10_inMINIAODSIM_616.root\u000a
p1068
aV/store/user/fnenna/NuGunE10_Phase2_PUstudies/140X_mcPhase2_14TeV_NuGun_MINIAOD_gemsegm/250524_110223/0000/step3_NuGunE10_inMINIAODSIM_593.root\u000a
p1069
aV/store/user/fnenna/NuGunE10_Phase2_PUstudies/140X_mcPhase2_14TeV_NuGun_MINIAOD_gemsegm/250524_110223/0000/step3_NuGunE10_inMINIAODSIM_980.root\u000a
p1070
aV/store/user/fnenna/NuGunE10_Phase2_PUstudies/140X_mcPhase2_14TeV_NuGun_MINIAOD_gemsegm/250524_110223/0000/step3_NuGunE10_inMINIAODSIM_838.root\u000a
p1071
aV/store/user/fnenna/NuGunE10_Phase2_PUstudies/140X_mcPhase2_14TeV_NuGun_MINIAOD_gemsegm/250524_110223/0000/step3_NuGunE10_inMINIAODSIM_85.root\u000a
p1072
aV/store/user/fnenna/NuGunE10_Phase2_PUstudies/140X_mcPhase2_14TeV_NuGun_MINIAOD_gemsegm/250524_110223/0000/step3_NuGunE10_inMINIAODSIM_803.root\u000a
p1073
aV/store/user/fnenna/NuGunE10_Phase2_PUstudies/140X_mcPhase2_14TeV_NuGun_MINIAOD_gemsegm/250524_110223/0000/step3_NuGunE10_inMINIAODSIM_344.root\u000a
p1074
aV/store/user/fnenna/NuGunE10_Phase2_PUstudies/140X_mcPhase2_14TeV_NuGun_MINIAOD_gemsegm/250524_110223/0000/step3_NuGunE10_inMINIAODSIM_164.root\u000a
p1075
aV/store/user/fnenna/NuGunE10_Phase2_PUstudies/140X_mcPhase2_14TeV_NuGun_MINIAOD_gemsegm/250524_110223/0000/step3_NuGunE10_inMINIAODSIM_347.root\u000a
p1076
aV/store/user/fnenna/NuGunE10_Phase2_PUstudies/140X_mcPhase2_14TeV_NuGun_MINIAOD_gemsegm/250524_110223/0000/step3_NuGunE10_inMINIAODSIM_825.root\u000a
p1077
aV/store/user/fnenna/NuGunE10_Phase2_PUstudies/140X_mcPhase2_14TeV_NuGun_MINIAOD_gemsegm/250524_110223/0000/step3_NuGunE10_inMINIAODSIM_872.root\u000a
p1078
aV/store/user/fnenna/NuGunE10_Phase2_PUstudies/140X_mcPhase2_14TeV_NuGun_MINIAOD_gemsegm/250524_110223/0000/step3_NuGunE10_inMINIAODSIM_143.root\u000a
p1079
aV/store/user/fnenna/NuGunE10_Phase2_PUstudies/140X_mcPhase2_14TeV_NuGun_MINIAOD_gemsegm/250524_110223/0000/step3_NuGunE10_inMINIAODSIM_21.root\u000a
p1080
aV/store/user/fnenna/NuGunE10_Phase2_PUstudies/140X_mcPhase2_14TeV_NuGun_MINIAOD_gemsegm/250524_110223/0000/step3_NuGunE10_inMINIAODSIM_758.root\u000a
p1081
aV/store/user/fnenna/NuGunE10_Phase2_PUstudies/140X_mcPhase2_14TeV_NuGun_MINIAOD_gemsegm/250524_110223/0000/step3_NuGunE10_inMINIAODSIM_914.root\u000a
p1082
aV/store/user/fnenna/NuGunE10_Phase2_PUstudies/140X_mcPhase2_14TeV_NuGun_MINIAOD_gemsegm/250524_110223/0000/step3_NuGunE10_inMINIAODSIM_578.root\u000a
p1083
aV/store/user/fnenna/NuGunE10_Phase2_PUstudies/140X_mcPhase2_14TeV_NuGun_MINIAOD_gemsegm/250524_110223/0000/step3_NuGunE10_inMINIAODSIM_864.root\u000a
p1084
asg77
Vphys03
p1085
sg76
VFileBased
p1086
sg75
I5
sg73
I01
sg71
g50
sbsg24
g13
(g27
g15
Ntp1087
Rp1088
(dp1089
g31
g4
sg32
g24
sg33
g34
((lp1090
VignoreGlobalBlacklist
p1091
aVstorageSite
p1092
atp1093
Rp1094
sg42
(dp1095
sg44
g34
((lp1096
tp1097
Rp1098
sg48
Nsg49
I00
sg1092
VT2_IT_Bari
p1099
sg1091
I01
sbsg25
g13
(g27
g15
Ntp1100
Rp1101
(dp1102
g31
g4
sg32
g25
sg33
g34
((lp1103
tp1104
Rp1105
sg42
(dp1106
sg44
g34
((lp1107
tp1108
Rp1109
sg48
Nsg49
I00
sbsg26
g13
(g27
g15
Ntp1110
Rp1111
(dp1112
g31
g4
sg32
g26
sg33
g34
((lp1113
tp1114
Rp1115
sg42
(dp1116
sg44
g34
((lp1117
tp1118
Rp1119
sg48
Nsg49
I00
sbsbs.